
../bin/rfm_int_hww/hr20.elf:     file format elf32-avr

Sections:
Idx Name          Size      VMA       LMA       File off  Algn
  0 .data         00000018  00800100  00003bf6  00003cca  2**0
                  CONTENTS, ALLOC, LOAD, DATA
  1 .text         00003bf6  00000000  00000000  000000d4  2**1
                  CONTENTS, ALLOC, LOAD, READONLY, CODE
  2 .bss          00000285  00800118  00800118  00003ce2  2**0
                  ALLOC
  3 .eeprom       00000180  00810000  00810000  00003ce2  2**0
                  CONTENTS, ALLOC, LOAD, DATA
  4 .fuse         00000003  00820000  00820000  00003e62  2**0
                  CONTENTS, ALLOC, LOAD, DATA
  5 .stab         00000dbc  00000000  00000000  00003e68  2**2
                  CONTENTS, READONLY, DEBUGGING
  6 .stabstr      000000d9  00000000  00000000  00004c24  2**0
                  CONTENTS, READONLY, DEBUGGING
  7 .debug_aranges 000001e0  00000000  00000000  00004cfd  2**0
                  CONTENTS, READONLY, DEBUGGING
  8 .debug_pubnames 00000ba3  00000000  00000000  00004edd  2**0
                  CONTENTS, READONLY, DEBUGGING
  9 .debug_info   000054ad  00000000  00000000  00005a80  2**0
                  CONTENTS, READONLY, DEBUGGING
 10 .debug_abbrev 0000189b  00000000  00000000  0000af2d  2**0
                  CONTENTS, READONLY, DEBUGGING
 11 .debug_line   00003baa  00000000  00000000  0000c7c8  2**0
                  CONTENTS, READONLY, DEBUGGING
 12 .debug_frame  00000710  00000000  00000000  00010374  2**2
                  CONTENTS, READONLY, DEBUGGING
 13 .debug_str    00001528  00000000  00000000  00010a84  2**0
                  CONTENTS, READONLY, DEBUGGING
 14 .debug_loc    00001edd  00000000  00000000  00011fac  2**0
                  CONTENTS, READONLY, DEBUGGING
 15 .debug_ranges 00000030  00000000  00000000  00013e89  2**0
                  CONTENTS, READONLY, DEBUGGING

Disassembly of section .text:

00000000 <__vectors>:
       0:	2d c1       	rjmp	.+602    	; 0x25c <__ctors_end>
       2:	00 00       	nop
       4:	48 c1       	rjmp	.+656    	; 0x296 <__bad_interrupt>
       6:	00 00       	nop
       8:	d5 c2       	rjmp	.+1450   	; 0x5b4 <__vector_2>
       a:	00 00       	nop
       c:	0c 94 6b 14 	jmp	0x28d6	; 0x28d6 <__vector_3>
      10:	0c 94 c2 0f 	jmp	0x1f84	; 0x1f84 <__vector_4>
      14:	0c 94 b5 0f 	jmp	0x1f6a	; 0x1f6a <__vector_5>
      18:	3e c1       	rjmp	.+636    	; 0x296 <__bad_interrupt>
      1a:	00 00       	nop
      1c:	3c c1       	rjmp	.+632    	; 0x296 <__bad_interrupt>
      1e:	00 00       	nop
      20:	3a c1       	rjmp	.+628    	; 0x296 <__bad_interrupt>
      22:	00 00       	nop
      24:	38 c1       	rjmp	.+624    	; 0x296 <__bad_interrupt>
      26:	00 00       	nop
      28:	36 c1       	rjmp	.+620    	; 0x296 <__bad_interrupt>
      2a:	00 00       	nop
      2c:	78 c2       	rjmp	.+1264   	; 0x51e <__vector_11>
      2e:	00 00       	nop
      30:	32 c1       	rjmp	.+612    	; 0x296 <__bad_interrupt>
      32:	00 00       	nop
      34:	43 c7       	rjmp	.+3718   	; 0xebc <__vector_13>
      36:	00 00       	nop
      38:	0a c7       	rjmp	.+3604   	; 0xe4e <__vector_14>
      3a:	00 00       	nop
      3c:	cc c6       	rjmp	.+3480   	; 0xdd6 <__vector_15>
      3e:	00 00       	nop
      40:	2a c1       	rjmp	.+596    	; 0x296 <__bad_interrupt>
      42:	00 00       	nop
      44:	28 c1       	rjmp	.+592    	; 0x296 <__bad_interrupt>
      46:	00 00       	nop
      48:	26 c1       	rjmp	.+588    	; 0x296 <__bad_interrupt>
      4a:	00 00       	nop
      4c:	0c 94 4f 16 	jmp	0x2c9e	; 0x2c9e <__vector_19>
      50:	22 c1       	rjmp	.+580    	; 0x296 <__bad_interrupt>
      52:	00 00       	nop
      54:	20 c1       	rjmp	.+576    	; 0x296 <__bad_interrupt>
      56:	00 00       	nop
      58:	0c 94 0c 1d 	jmp	0x3a18	; 0x3a18 <__vector_22>
      5c:	47 0a       	sbc	r4, r23
      5e:	22 0a       	sbc	r2, r18
      60:	57 0a       	sbc	r5, r23
      62:	55 0a       	sbc	r5, r21
      64:	57 0a       	sbc	r5, r23
      66:	57 0a       	sbc	r5, r23
      68:	bf 09       	sbc	r27, r15
      6a:	57 0a       	sbc	r5, r23
      6c:	57 0a       	sbc	r5, r23
      6e:	57 0a       	sbc	r5, r23
      70:	57 0a       	sbc	r5, r23
      72:	57 0a       	sbc	r5, r23
      74:	3b 0a       	sbc	r3, r27
      76:	57 0a       	sbc	r5, r23
      78:	57 0a       	sbc	r5, r23
      7a:	57 0a       	sbc	r5, r23
      7c:	57 0a       	sbc	r5, r23
      7e:	e9 09       	sbc	r30, r9
      80:	bf 09       	sbc	r27, r15
      82:	b0 09       	sbc	r27, r0
      84:	57 0a       	sbc	r5, r23
      86:	ad 09       	sbc	r26, r13
      88:	e9 09       	sbc	r30, r9
      8a:	2f 0b       	sbc	r18, r31
      8c:	09 0b       	sbc	r16, r25
      8e:	42 0b       	sbc	r20, r18
      90:	76 0a       	sbc	r7, r22
      92:	42 0b       	sbc	r20, r18
      94:	42 0b       	sbc	r20, r18
      96:	88 0a       	sbc	r8, r24
      98:	fa 0a       	sbc	r15, r26
      9a:	42 0b       	sbc	r20, r18
      9c:	42 0b       	sbc	r20, r18
      9e:	42 0b       	sbc	r20, r18
      a0:	42 0b       	sbc	r20, r18
      a2:	22 0b       	sbc	r18, r18
      a4:	42 0b       	sbc	r20, r18
      a6:	42 0b       	sbc	r20, r18
      a8:	42 0b       	sbc	r20, r18
      aa:	42 0b       	sbc	r20, r18
      ac:	b3 0a       	sbc	r11, r19
      ae:	88 0a       	sbc	r8, r24
      b0:	7b 0a       	sbc	r7, r27
      b2:	42 0b       	sbc	r20, r18
      b4:	6f 0a       	sbc	r6, r31
      b6:	b3 0a       	sbc	r11, r19
      b8:	42 0b       	sbc	r20, r18
      ba:	e9 0a       	sbc	r14, r25
      bc:	42 17       	cp	r20, r18
      be:	45 17       	cp	r20, r21
      c0:	aa 18       	sub	r10, r10
      c2:	aa 18       	sub	r10, r10
      c4:	aa 18       	sub	r10, r10
      c6:	aa 18       	sub	r10, r10
      c8:	d6 17       	cp	r29, r22
      ca:	93 17       	cp	r25, r19
      cc:	00 18       	sub	r0, r0
      ce:	0b 18       	sub	r0, r11
      d0:	70 17       	cp	r23, r16
      d2:	79 18       	sub	r7, r9
      d4:	7e 18       	sub	r7, r14
      d6:	7e 18       	sub	r7, r14
      d8:	9d 18       	sub	r9, r13
      da:	4c 17       	cp	r20, r28
      dc:	56 17       	cp	r21, r22
      de:	56 17       	cp	r21, r22
      e0:	70 17       	cp	r23, r16
      e2:	70 17       	cp	r23, r16
      e4:	b5 18       	sub	r11, r5
      e6:	1c 18       	sub	r1, r12
      e8:	23 18       	sub	r2, r3
      ea:	d4 18       	sub	r13, r4
      ec:	e2 18       	sub	r14, r2
      ee:	10 1a       	sub	r1, r16
      f0:	10 1a       	sub	r1, r16
      f2:	10 1a       	sub	r1, r16
      f4:	10 1a       	sub	r1, r16
      f6:	2f 19       	sub	r18, r15
      f8:	2f 19       	sub	r18, r15
      fa:	2f 19       	sub	r18, r15
      fc:	2f 19       	sub	r18, r15
      fe:	2f 19       	sub	r18, r15
     100:	44 1a       	sub	r4, r20
     102:	4a 1a       	sub	r4, r26
     104:	4a 1a       	sub	r4, r26
     106:	95 1a       	sub	r9, r21
     108:	ee 18       	sub	r14, r14
     10a:	fa 18       	sub	r15, r10
     10c:	06 19       	sub	r16, r6
     10e:	12 19       	sub	r17, r2
     110:	1f 19       	sub	r17, r15
     112:	62 19       	sub	r22, r2
     114:	71 19       	sub	r23, r1
     116:	92 19       	sub	r25, r2

00000118 <watch_map>:
     118:	3a 82 38 82 31 81 2d 01 03 01 2e 01 04 01 2f 01     :.8.1.-......./.
     128:	1c 81 1a 81 18 81 1e 01 8e 82 90 82                 ............

00000134 <__c.1541>:
     134:	3a 4f 70 65 6e 48 52 32 30 72 66 6d 20 31 2e 30     :OpenHR20rfm 1.0
     144:	20 46 65 62 20 31 36 20 32 30 31 31 20 30 31 3a      Feb 16 2011 01:
     154:	32 38 3a 33 31 20 52 65 6c 5f 31 2e 30 0a 00        28:31 Rel_1.0..

00000163 <__c.1577>:
     163:	20 57 00                                             W.

00000166 <__c.1575>:
     166:	20 58 00                                             X.

00000169 <__c.1573>:
     169:	20 45 3a 00                                          E:.

0000016d <__c.1571>:
     16d:	20 49 73 3a 20 00                                    Is: .

00000173 <__c.1569>:
     173:	20 42 3a 20 00                                       B: .

00000178 <__c.1567>:
     178:	42 4f 4f 54 00                                      BOOT.

0000017d <__c.1565>:
     17d:	20 53 3a 20 00                                       S: .

00000182 <__c.1563>:
     182:	20 49 3a 20 00                                       I: .

00000187 <__c.1561>:
     187:	20 56 3a 20 00                                       V: .

0000018c <__c.1559>:
     18c:	44 3a 20 00                                         D: .

00000190 <wl_header>:
     190:	aa aa 2d d4                                         ..-.

00000194 <Km_upper>:
     194:	01 23 45 67 89 ab cd ef                             .#Eg....

0000019c <RTC_DayOfMonthTablePrgMem>:
     19c:	1f 1c 1f 1e 1f 1e 1f 1f 1e 1f 1e 1f                 ............

000001a8 <daysInYear>:
     1a8:	00 00 1f 00 3b 00 5a 00 78 00 97 00 b5 00 d4 00     ....;.Z.x.......
     1b8:	f3 00 11 01 30 01 4e 01                             ....0.N.

000001c0 <LCD_CharTablePrgMem>:
     1c0:	3f 06 5b 4f 66 6d 7d 07 7f 6f 77 7c 39 5e 79 71     ?.[Ofm}..ow|9^yq
     1d0:	63 54 73 76 30 08 40 01 48 41 09 49 50 54 10 5c     cTsv0.@.HA.IPT.\
     1e0:	00 33 27 38 58 3e 78 6e                             .3'8X>xn

000001e8 <LCD_StringTable>:
     1e8:	20 01 16 07 20 16 01 16 20 16 02 16 20 16 03 16      ... ... ... ...
     1f8:	20 16 04 16 20 16 05 16 20 16 06 16 20 16 07 16      ... ... ... ...
     208:	0b 01 1f 24 16 16 16 16 20 16 0c 16 20 0e 1c 1c     ...$.... ... ...
     218:	00 0f 0f 20 00 1d 20 20 00 12 0e 1d 0b 0a 26 26     ... ..  ......&&
     228:	20 0e 02 20 20 0e 03 20 20 0e 04 20 0e 0e 12 1c      ..  ..  .. ....

00000238 <LCD_FieldOffsetTablePrgMem>:
     238:	28 24 1f 1b                                         ($..

0000023c <LCD_SegOffsetTablePrgMem>:
     23c:	02 03 1b 19 18 00 01                                .......

00000243 <LCD_SegHourBarOffsetTablePrgMem>:
     243:	00 02 03 04 05 06 07 08 09 0a 39 35 42 3e 0c 0d     ..........95B>..
     253:	0e 0f 10 11 12 13 14 15 00                          .........

0000025c <__ctors_end>:
     25c:	11 24       	eor	r1, r1
     25e:	1f be       	out	0x3f, r1	; 63
     260:	cf ef       	ldi	r28, 0xFF	; 255
     262:	d4 e0       	ldi	r29, 0x04	; 4
     264:	de bf       	out	0x3e, r29	; 62
     266:	cd bf       	out	0x3d, r28	; 61

00000268 <__do_copy_data>:
     268:	11 e0       	ldi	r17, 0x01	; 1
     26a:	a0 e0       	ldi	r26, 0x00	; 0
     26c:	b1 e0       	ldi	r27, 0x01	; 1
     26e:	e6 ef       	ldi	r30, 0xF6	; 246
     270:	fb e3       	ldi	r31, 0x3B	; 59
     272:	02 c0       	rjmp	.+4      	; 0x278 <.do_copy_data_start>

00000274 <.do_copy_data_loop>:
     274:	05 90       	lpm	r0, Z+
     276:	0d 92       	st	X+, r0

00000278 <.do_copy_data_start>:
     278:	a8 31       	cpi	r26, 0x18	; 24
     27a:	b1 07       	cpc	r27, r17
     27c:	d9 f7       	brne	.-10     	; 0x274 <.do_copy_data_loop>

0000027e <__do_clear_bss>:
     27e:	13 e0       	ldi	r17, 0x03	; 3
     280:	a8 e1       	ldi	r26, 0x18	; 24
     282:	b1 e0       	ldi	r27, 0x01	; 1
     284:	01 c0       	rjmp	.+2      	; 0x288 <.do_clear_bss_start>

00000286 <.do_clear_bss_loop>:
     286:	1d 92       	st	X+, r1

00000288 <.do_clear_bss_start>:
     288:	ad 39       	cpi	r26, 0x9D	; 157
     28a:	b1 07       	cpc	r27, r17
     28c:	e1 f7       	brne	.-8      	; 0x286 <.do_clear_bss_loop>
     28e:	0e 94 48 12 	call	0x2490	; 0x2490 <main>
     292:	0c 94 f9 1d 	jmp	0x3bf2	; 0x3bf2 <_exit>

00000296 <__bad_interrupt>:
     296:	b4 ce       	rjmp	.-664    	; 0x0 <__vectors>

00000298 <MOTOR_GetPosPercent>:
 *   - actual position of motor in percent
 *   - 255 if motor is not calibrated
 ******************************************************************************/
uint8_t MOTOR_GetPosPercent(void)
{
    if (MOTOR_IsCalibrated()){
     298:	80 91 00 01 	lds	r24, 0x0100
     29c:	88 23       	and	r24, r24
     29e:	11 f0       	breq	.+4      	; 0x2a4 <MOTOR_GetPosPercent+0xc>
     2a0:	6f ef       	ldi	r22, 0xFF	; 255
     2a2:	19 c0       	rjmp	.+50     	; 0x2d6 <MOTOR_GetPosPercent+0x3e>
        return (uint8_t) ( (MOTOR_PosAct * 10) / (MOTOR_PosMax/10) );
     2a4:	20 91 18 01 	lds	r18, 0x0118
     2a8:	30 91 19 01 	lds	r19, 0x0119
     2ac:	f9 01       	movw	r30, r18
     2ae:	93 e0       	ldi	r25, 0x03	; 3
     2b0:	ee 0f       	add	r30, r30
     2b2:	ff 1f       	adc	r31, r31
     2b4:	9a 95       	dec	r25
     2b6:	e1 f7       	brne	.-8      	; 0x2b0 <MOTOR_GetPosPercent+0x18>
     2b8:	80 91 1a 01 	lds	r24, 0x011A
     2bc:	90 91 1b 01 	lds	r25, 0x011B
     2c0:	6a e0       	ldi	r22, 0x0A	; 10
     2c2:	70 e0       	ldi	r23, 0x00	; 0
     2c4:	0e 94 5a 1d 	call	0x3ab4	; 0x3ab4 <__divmodhi4>
     2c8:	22 0f       	add	r18, r18
     2ca:	33 1f       	adc	r19, r19
     2cc:	c9 01       	movw	r24, r18
     2ce:	8e 0f       	add	r24, r30
     2d0:	9f 1f       	adc	r25, r31
     2d2:	0e 94 5a 1d 	call	0x3ab4	; 0x3ab4 <__divmodhi4>
    } else {
        return 255;
    }
}
     2d6:	86 2f       	mov	r24, r22
     2d8:	08 95       	ret

000002da <MOTOR_Control>:
     direction  PG3  PG4  PB7  PB4/PWM(OC0A)    PE3    PCINT4
       stop:     0    0    0    0                0      off
       open:     0    1    1   invert. mode      1      on
       close:    1    0    0   non inv mode      1      on       \endverbatim
 ******************************************************************************/
static void MOTOR_Control(motor_dir_t direction) {
     2da:	e8 2f       	mov	r30, r24
    if (direction == stop){                             // motor off
     2dc:	88 23       	and	r24, r24
     2de:	29 f4       	brne	.+10     	; 0x2ea <MOTOR_Control+0x10>
#if THERMOTRONIC!=1   //not needed (no enable-Pin for motor) 
   PORTB &= ~(1<<PB7);   // PB7 LOW
#endif
}
static inline void MOTOR_H_BRIDGE_stop(void) {
   PORTG  =  0;          // PG3 LOW, PG4 LOW
     2e0:	14 ba       	out	0x14, r1	; 20
#if THERMOTRONIC!=1   //not needed (no enable-Pin for motor) 
   PORTB &= ~(1<<PB7);   // PB7 LOW
     2e2:	2f 98       	cbi	0x05, 7	; 5
#else
                COM_putchar((PINE & _BV(PE4))?'Y':'y');
#endif
            #endif
        MOTOR_H_BRIDGE_stop();
        MOTOR_Dir = stop;
     2e4:	10 92 92 02 	sts	0x0292, r1
     2e8:	08 95       	ret
    } else {                                            // motor on
        if (MOTOR_Dir != direction){
     2ea:	80 91 92 02 	lds	r24, 0x0292
     2ee:	8e 17       	cp	r24, r30
     2f0:	09 f4       	brne	.+2      	; 0x2f4 <MOTOR_Control+0x1a>
     2f2:	7b c0       	rjmp	.+246    	; 0x3ea <MOTOR_Control+0x110>
            MOTOR_eye_enable();
     2f4:	73 9a       	sbi	0x0e, 3	; 14
            motor_diag_cnt=0; last_eye_change=0; longest_low_eye = 0; 
     2f6:	10 92 20 01 	sts	0x0120, r1
     2fa:	10 92 1f 01 	sts	0x011F, r1
     2fe:	10 92 25 01 	sts	0x0125, r1
     302:	10 92 24 01 	sts	0x0124, r1
     306:	10 92 27 01 	sts	0x0127, r1
     30a:	10 92 26 01 	sts	0x0126, r1
            motor_diag_ignore = MOTOR_IGNORE_IMPULSES;
     30e:	82 e0       	ldi	r24, 0x02	; 2
     310:	80 93 01 01 	sts	0x0101, r24
            MOTOR_Dir_Counter = (MOTOR_Dir = direction);
     314:	e0 93 92 02 	sts	0x0292, r30
     318:	e0 93 2a 01 	sts	0x012A, r30
            motor_max_time_for_impulse = ((uint16_t)config.motor_speed *
     31c:	90 91 6a 03 	lds	r25, 0x036A
     320:	80 91 00 01 	lds	r24, 0x0100
     324:	88 23       	and	r24, r24
     326:	19 f4       	brne	.+6      	; 0x32e <MOTOR_Control+0x54>
     328:	80 91 69 03 	lds	r24, 0x0369
     32c:	02 c0       	rjmp	.+4      	; 0x332 <MOTOR_Control+0x58>
     32e:	80 91 68 03 	lds	r24, 0x0368
     332:	28 2f       	mov	r18, r24
     334:	30 e0       	ldi	r19, 0x00	; 0
     336:	89 2f       	mov	r24, r25
     338:	90 e0       	ldi	r25, 0x00	; 0
     33a:	ac 01       	movw	r20, r24
     33c:	24 9f       	mul	r18, r20
     33e:	c0 01       	movw	r24, r0
     340:	25 9f       	mul	r18, r21
     342:	90 0d       	add	r25, r0
     344:	34 9f       	mul	r19, r20
     346:	90 0d       	add	r25, r0
     348:	11 24       	eor	r1, r1
     34a:	64 e6       	ldi	r22, 0x64	; 100
     34c:	70 e0       	ldi	r23, 0x00	; 0
     34e:	0e 94 46 1d 	call	0x3a8c	; 0x3a8c <__udivmodhi4>
     352:	33 e0       	ldi	r19, 0x03	; 3
     354:	66 0f       	add	r22, r22
     356:	77 1f       	adc	r23, r23
     358:	3a 95       	dec	r19
     35a:	e1 f7       	brne	.-8      	; 0x354 <MOTOR_Control+0x7a>
     35c:	70 93 2c 01 	sts	0x012C, r23
     360:	60 93 2b 01 	sts	0x012B, r22
                      ((MOTOR_IsCalibrated())?   
                            (uint16_t)config.motor_end_detect_run
                            :(uint16_t)config.motor_end_detect_cal) / 100)<<3;
            motor_timer = motor_max_time_for_impulse<<2; // *4 (for motor start-up)
     364:	80 91 2b 01 	lds	r24, 0x012B
     368:	90 91 2c 01 	lds	r25, 0x012C
     36c:	88 0f       	add	r24, r24
     36e:	99 1f       	adc	r25, r25
     370:	88 0f       	add	r24, r24
     372:	99 1f       	adc	r25, r25
     374:	90 93 22 01 	sts	0x0122, r25
     378:	80 93 21 01 	sts	0x0121, r24
            TIFR0 = (1<<TOV0); // clean interrupt flag
     37c:	81 e0       	ldi	r24, 0x01	; 1
     37e:	85 bb       	out	0x15, r24	; 21
            TCNT0 = 0;
     380:	16 bc       	out	0x26, r1	; 38
            TIMSK0 = (1<<TOIE0); //enable interrupt from timer0 overflow
     382:	80 93 6e 00 	sts	0x006E, r24
            pine_last=PINE;
     386:	8c b1       	in	r24, 0x0c	; 12
     388:	80 93 23 01 	sts	0x0123, r24
#if THERMOTRONIC==1
            PCMSK0 |= (1<<PCINT1); // enable interrupt from eye
#else
            PCMSK0 |= (1<<PCINT4);  // enable interrupt from eye
     38c:	80 91 6b 00 	lds	r24, 0x006B
     390:	80 61       	ori	r24, 0x10	; 16
     392:	80 93 6b 00 	sts	0x006B, r24
#endif
            {
                // pwm startup battery voltage compensation
                MOTOR_pwm_set((int16_t)(((uint16_t)config.motor_pwm_max * 256) / ((bat_average)/(2600/256))));
     396:	40 91 64 03 	lds	r20, 0x0364
     39a:	80 91 38 02 	lds	r24, 0x0238
     39e:	90 91 39 02 	lds	r25, 0x0239
     3a2:	6a e0       	ldi	r22, 0x0A	; 10
     3a4:	70 e0       	ldi	r23, 0x00	; 0
     3a6:	0e 94 5a 1d 	call	0x3ab4	; 0x3ab4 <__divmodhi4>
     3aa:	80 e0       	ldi	r24, 0x00	; 0
     3ac:	94 2f       	mov	r25, r20
     3ae:	0e 94 46 1d 	call	0x3a8c	; 0x3a8c <__udivmodhi4>
 *
 * \note called by TASK_MOTOR_PULSE event
 *
 ******************************************************************************/
static void MOTOR_pwm_set(int16_t pwm) {
    if (pwm>config.motor_pwm_max) OCR0A = config.motor_pwm_max;
     3b2:	84 2f       	mov	r24, r20
     3b4:	90 e0       	ldi	r25, 0x00	; 0
     3b6:	86 17       	cp	r24, r22
     3b8:	97 07       	cpc	r25, r23
     3ba:	3c f0       	brlt	.+14     	; 0x3ca <MOTOR_Control+0xf0>
    else if (pwm<config.motor_pwm_min) OCR0A = config.motor_pwm_min;
     3bc:	40 91 63 03 	lds	r20, 0x0363
     3c0:	84 2f       	mov	r24, r20
     3c2:	90 e0       	ldi	r25, 0x00	; 0
     3c4:	68 17       	cp	r22, r24
     3c6:	79 07       	cpc	r23, r25
     3c8:	14 f4       	brge	.+4      	; 0x3ce <MOTOR_Control+0xf4>
     3ca:	47 bd       	out	0x27, r20	; 39
     3cc:	01 c0       	rjmp	.+2      	; 0x3d0 <MOTOR_Control+0xf6>
    else OCR0A = (uint8_t)pwm;
     3ce:	67 bd       	out	0x27, r22	; 39
#endif
            {
                // pwm startup battery voltage compensation
                MOTOR_pwm_set((int16_t)(((uint16_t)config.motor_pwm_max * 256) / ((bat_average)/(2600/256))));
            }
            if ( direction == close) {
     3d0:	ef 3f       	cpi	r30, 0xFF	; 255
     3d2:	31 f4       	brne	.+12     	; 0x3e0 <MOTOR_Control+0x106>
#if THERMOTRONIC!=1   //not needed (no enable-Pin for motor) 
   PORTB |=  (1<<PB7);   // PB7 HIGH
#endif
}
static inline void MOTOR_H_BRIDGE_close(void) {
   PORTG  =  (1<<PG3);   // PG3 HIGH, PG4 LOW
     3d4:	88 e0       	ldi	r24, 0x08	; 8
     3d6:	84 bb       	out	0x14, r24	; 20
#if THERMOTRONIC!=1   //not needed (no enable-Pin for motor) 
   PORTB &= ~(1<<PB7);   // PB7 LOW
     3d8:	2f 98       	cbi	0x05, 7	; 5
                MOTOR_H_BRIDGE_close();
#if THERMOTRONIC==1
				TCCR0A = (1<<CS00); //start timer (no PWM)
#else
                // set PWM non inverting mode
                TCCR0A = (1<<WGM00) | (1<<WGM01) | (1<<COM0A1) | (1<<CS00);
     3da:	89 e6       	ldi	r24, 0x69	; 105
     3dc:	84 bd       	out	0x24, r24	; 36
     3de:	08 95       	ret
#define MOTOR_eye_test() (PORTE & _BV(PE3))

// How is the H-Bridge connected to the AVR?

static inline void MOTOR_H_BRIDGE_open(void) {
   PORTG  =  (1<<PG4);   // PG3 LOW, PG4 HIGH
     3e0:	80 e1       	ldi	r24, 0x10	; 16
     3e2:	84 bb       	out	0x14, r24	; 20
#if THERMOTRONIC!=1   //not needed (no enable-Pin for motor) 
   PORTB |=  (1<<PB7);   // PB7 HIGH
     3e4:	2f 9a       	sbi	0x05, 7	; 5
                // set pins of H-Bridge
				MOTOR_H_BRIDGE_open();
#if THERMOTRONIC==1
				TCCR0A = (1<<CS00); //start timer (no PWM)
#else
                TCCR0A=(1<<WGM00)|(1<<WGM01)|(1<<COM0A1)|(1<<COM0A0)|(1<<CS00);
     3e6:	89 e7       	ldi	r24, 0x79	; 121
     3e8:	84 bd       	out	0x24, r24	; 36
     3ea:	08 95       	ret

000003ec <MOTOR_Goto>:
 *         - 100 : open
 *
 * \note   works only if calibrated before
 ******************************************************************************/
void MOTOR_Goto(uint8_t percent)
{
     3ec:	28 2f       	mov	r18, r24
    // works only if calibrated
    if (MOTOR_IsCalibrated() && !MOTOR_eye_test()){
     3ee:	80 91 00 01 	lds	r24, 0x0100
     3f2:	88 23       	and	r24, r24
     3f4:	09 f0       	breq	.+2      	; 0x3f8 <MOTOR_Goto+0xc>
     3f6:	45 c0       	rjmp	.+138    	; 0x482 <MOTOR_Goto+0x96>
     3f8:	73 99       	sbic	0x0e, 3	; 14
     3fa:	43 c0       	rjmp	.+134    	; 0x482 <MOTOR_Goto+0x96>
        // set stop position
        if (percent == 100) {
     3fc:	24 36       	cpi	r18, 0x64	; 100
     3fe:	29 f4       	brne	.+10     	; 0x40a <MOTOR_Goto+0x1e>
            MOTOR_PosStop = MOTOR_PosMax;
     400:	80 91 1a 01 	lds	r24, 0x011A
     404:	90 91 1b 01 	lds	r25, 0x011B
     408:	1d c0       	rjmp	.+58     	; 0x444 <MOTOR_Goto+0x58>
        } else if (percent == 0) {
     40a:	22 23       	and	r18, r18
     40c:	29 f4       	brne	.+10     	; 0x418 <MOTOR_Goto+0x2c>
            MOTOR_PosStop = 0;
     40e:	10 92 29 01 	sts	0x0129, r1
     412:	10 92 28 01 	sts	0x0128, r1
     416:	1a c0       	rjmp	.+52     	; 0x44c <MOTOR_Goto+0x60>
        } else {
            // MOTOR_PosMax>>2 and 100>>2 => overload protection
            #if (MOTOR_MAX_IMPULSES>>2)*(100>>2) > INT16_MAX
             #error variable OVERLOAD possible
            #endif
            MOTOR_PosStop = ((int16_t)percent * (MOTOR_PosMax>>2)) / (100>>2);
     418:	30 e0       	ldi	r19, 0x00	; 0
     41a:	80 91 1a 01 	lds	r24, 0x011A
     41e:	90 91 1b 01 	lds	r25, 0x011B
     422:	95 95       	asr	r25
     424:	87 95       	ror	r24
     426:	95 95       	asr	r25
     428:	87 95       	ror	r24
     42a:	ac 01       	movw	r20, r24
     42c:	24 9f       	mul	r18, r20
     42e:	c0 01       	movw	r24, r0
     430:	25 9f       	mul	r18, r21
     432:	90 0d       	add	r25, r0
     434:	34 9f       	mul	r19, r20
     436:	90 0d       	add	r25, r0
     438:	11 24       	eor	r1, r1
     43a:	69 e1       	ldi	r22, 0x19	; 25
     43c:	70 e0       	ldi	r23, 0x00	; 0
     43e:	0e 94 5a 1d 	call	0x3ab4	; 0x3ab4 <__divmodhi4>
     442:	cb 01       	movw	r24, r22
     444:	90 93 29 01 	sts	0x0129, r25
     448:	80 93 28 01 	sts	0x0128, r24
        }
        // switch motor on
        {
            int16_t a=MOTOR_PosAct; // volatile variable optimization
     44c:	40 91 18 01 	lds	r20, 0x0118
     450:	50 91 19 01 	lds	r21, 0x0119
            int16_t s=MOTOR_PosStop; // volatile variable optimization
     454:	20 91 28 01 	lds	r18, 0x0128
     458:	30 91 29 01 	lds	r19, 0x0129
            if (a > s+MOTOR_PosOvershoot){
     45c:	80 91 1e 01 	lds	r24, 0x011E
     460:	b9 01       	movw	r22, r18
     462:	68 0f       	add	r22, r24
     464:	71 1d       	adc	r23, r1
     466:	64 17       	cp	r22, r20
     468:	75 07       	cpc	r23, r21
     46a:	14 f4       	brge	.+4      	; 0x470 <MOTOR_Goto+0x84>
                MOTOR_Control(close);
     46c:	8f ef       	ldi	r24, 0xFF	; 255
     46e:	35 cf       	rjmp	.-406    	; 0x2da <MOTOR_Control>
            } else if (a < s-MOTOR_PosOvershoot){
     470:	80 91 1e 01 	lds	r24, 0x011E
     474:	28 1b       	sub	r18, r24
     476:	31 09       	sbc	r19, r1
     478:	42 17       	cp	r20, r18
     47a:	53 07       	cpc	r21, r19
     47c:	14 f4       	brge	.+4      	; 0x482 <MOTOR_Goto+0x96>
                MOTOR_Control(open);
     47e:	81 e0       	ldi	r24, 0x01	; 1
     480:	2c cf       	rjmp	.-424    	; 0x2da <MOTOR_Control>
     482:	08 95       	ret

00000484 <MOTOR_timer_pulse>:
 *
 * \note called by TASK_MOTOR_PULSE event
 *
 ******************************************************************************/
void MOTOR_timer_pulse(void) {
    if (motor_diag_ignore == 0) {  
     484:	80 91 01 01 	lds	r24, 0x0101
     488:	88 23       	and	r24, r24
     48a:	09 f0       	breq	.+2      	; 0x48e <MOTOR_timer_pulse+0xa>
     48c:	44 c0       	rjmp	.+136    	; 0x516 <__stack+0x17>
        {
            int16_t chg = (((int16_t)((motor_diag+4)>>3)- (int16_t)config.motor_speed)
                    *config.motor_speed_ctl_gain)/100;
     48e:	20 91 1c 01 	lds	r18, 0x011C
     492:	30 91 1d 01 	lds	r19, 0x011D
     496:	2c 5f       	subi	r18, 0xFC	; 252
     498:	3f 4f       	sbci	r19, 0xFF	; 255
     49a:	53 e0       	ldi	r21, 0x03	; 3
     49c:	36 95       	lsr	r19
     49e:	27 95       	ror	r18
     4a0:	5a 95       	dec	r21
     4a2:	e1 f7       	brne	.-8      	; 0x49c <MOTOR_timer_pulse+0x18>
     4a4:	80 91 6a 03 	lds	r24, 0x036A
     4a8:	28 1b       	sub	r18, r24
     4aa:	31 09       	sbc	r19, r1
     4ac:	80 91 6b 03 	lds	r24, 0x036B
     4b0:	90 e0       	ldi	r25, 0x00	; 0
     4b2:	ac 01       	movw	r20, r24
     4b4:	24 9f       	mul	r18, r20
     4b6:	c0 01       	movw	r24, r0
     4b8:	25 9f       	mul	r18, r21
     4ba:	90 0d       	add	r25, r0
     4bc:	34 9f       	mul	r19, r20
     4be:	90 0d       	add	r25, r0
     4c0:	11 24       	eor	r1, r1
     4c2:	64 e6       	ldi	r22, 0x64	; 100
     4c4:	70 e0       	ldi	r23, 0x00	; 0
     4c6:	0e 94 5a 1d 	call	0x3ab4	; 0x3ab4 <__divmodhi4>
            if (chg > config.motor_pwm_max_step) { chg=config.motor_pwm_max_step; }
     4ca:	80 91 6c 03 	lds	r24, 0x036C
     4ce:	48 2f       	mov	r20, r24
     4d0:	50 e0       	ldi	r21, 0x00	; 0
     4d2:	46 17       	cp	r20, r22
     4d4:	57 07       	cpc	r21, r23
     4d6:	4c f0       	brlt	.+18     	; 0x4ea <MOTOR_timer_pulse+0x66>
            else if (chg < -config.motor_pwm_max_step) chg=-config.motor_pwm_max_step;
     4d8:	88 27       	eor	r24, r24
     4da:	99 27       	eor	r25, r25
     4dc:	84 1b       	sub	r24, r20
     4de:	95 0b       	sbc	r25, r21
     4e0:	ab 01       	movw	r20, r22
     4e2:	68 17       	cp	r22, r24
     4e4:	79 07       	cpc	r23, r25
     4e6:	0c f4       	brge	.+2      	; 0x4ea <MOTOR_timer_pulse+0x66>
     4e8:	ac 01       	movw	r20, r24
            MOTOR_pwm_set(OCR0A + chg);
     4ea:	87 b5       	in	r24, 0x27	; 39
     4ec:	9a 01       	movw	r18, r20
     4ee:	28 0f       	add	r18, r24
     4f0:	31 1d       	adc	r19, r1
 *
 * \note called by TASK_MOTOR_PULSE event
 *
 ******************************************************************************/
static void MOTOR_pwm_set(int16_t pwm) {
    if (pwm>config.motor_pwm_max) OCR0A = config.motor_pwm_max;
     4f2:	40 91 64 03 	lds	r20, 0x0364
     4f6:	84 2f       	mov	r24, r20
     4f8:	90 e0       	ldi	r25, 0x00	; 0
     4fa:	82 17       	cp	r24, r18
     4fc:	93 07       	cpc	r25, r19
     4fe:	3c f0       	brlt	.+14     	; 0x50e <__stack+0xf>
    else if (pwm<config.motor_pwm_min) OCR0A = config.motor_pwm_min;
     500:	40 91 63 03 	lds	r20, 0x0363
     504:	84 2f       	mov	r24, r20
     506:	90 e0       	ldi	r25, 0x00	; 0
     508:	28 17       	cp	r18, r24
     50a:	39 07       	cpc	r19, r25
     50c:	14 f4       	brge	.+4      	; 0x512 <__stack+0x13>
     50e:	47 bd       	out	0x27, r20	; 39
     510:	08 95       	ret
    else OCR0A = (uint8_t)pwm;
     512:	27 bd       	out	0x27, r18	; 39
     514:	08 95       	ret
            if (chg > config.motor_pwm_max_step) { chg=config.motor_pwm_max_step; }
            else if (chg < -config.motor_pwm_max_step) chg=-config.motor_pwm_max_step;
            MOTOR_pwm_set(OCR0A + chg);
        }
    } else {
       motor_diag_ignore--;
     516:	81 50       	subi	r24, 0x01	; 1
     518:	80 93 01 01 	sts	0x0101, r24
     51c:	08 95       	ret

0000051e <__vector_11>:
 *******************************************************************************
 * Timer0 overflow interupt
 * runs at 15.625 kHz , see too TCCR0A setting in MOTOR_Control()
 * \note Timer0 is only active if the motor is running
 ******************************************************************************/
ISR (TIMER0_OVF_vect){
     51e:	1f 92       	push	r1
     520:	0f 92       	push	r0
     522:	0f b6       	in	r0, 0x3f	; 63
     524:	0f 92       	push	r0
     526:	11 24       	eor	r1, r1
     528:	2f 93       	push	r18
     52a:	8f 93       	push	r24
     52c:	9f 93       	push	r25
    motor_diag_cnt++;
     52e:	80 91 1f 01 	lds	r24, 0x011F
     532:	90 91 20 01 	lds	r25, 0x0120
     536:	01 96       	adiw	r24, 0x01	; 1
     538:	90 93 20 01 	sts	0x0120, r25
     53c:	80 93 1f 01 	sts	0x011F, r24
    if ((uint8_t)(motor_diag_cnt>>8) >= config.motor_close_eye_timeout) {
     540:	80 91 1f 01 	lds	r24, 0x011F
     544:	90 91 20 01 	lds	r25, 0x0120
     548:	20 91 67 03 	lds	r18, 0x0367
     54c:	92 17       	cp	r25, r18
     54e:	60 f0       	brcs	.+24     	; 0x568 <__vector_11+0x4a>
        // stop pwm signal and Timer0
#if THERMOTRONIC==1
		TCCR0A = 0;//no pwm
        PCMSK0 &= ~(1<<PCINT1); // disable eye interrupt
#else
		TCCR0A = (1<<WGM00) | (1<<WGM01); // 0b 0000 0011
     550:	88 e4       	ldi	r24, 0x48	; 72
     552:	84 bd       	out	0x24, r24	; 36
        PCMSK0 &= ~(1<<PCINT4); // disable eye interrupt
     554:	80 91 6b 00 	lds	r24, 0x006B
     558:	8f 7e       	andi	r24, 0xEF	; 239
     55a:	80 93 6b 00 	sts	0x006B, r24
#endif
        TIMSK0 = 0; // disable timmer 1 interrupt 
     55e:	10 92 6e 00 	sts	0x006E, r1

        // photo eye
        MOTOR_eye_disable();
     562:	73 98       	cbi	0x0e, 3	; 14
        task&=~(TASK_MOTOR_PULSE); // just ensurance
     564:	f4 98       	cbi	0x1e, 4	; 30
     566:	1c c0       	rjmp	.+56     	; 0x5a0 <__vector_11+0x82>
        MOTOR_H_BRIDGE_stop(); // ensurance that motor is stop 
    } else {
        if ( motor_timer > 0) {
     568:	80 91 21 01 	lds	r24, 0x0121
     56c:	90 91 22 01 	lds	r25, 0x0122
     570:	89 2b       	or	r24, r25
     572:	51 f0       	breq	.+20     	; 0x588 <__vector_11+0x6a>
            motor_timer--;
     574:	80 91 21 01 	lds	r24, 0x0121
     578:	90 91 22 01 	lds	r25, 0x0122
     57c:	01 97       	sbiw	r24, 0x01	; 1
     57e:	90 93 22 01 	sts	0x0122, r25
     582:	80 93 21 01 	sts	0x0121, r24
     586:	0e c0       	rjmp	.+28     	; 0x5a4 <__vector_11+0x86>
        } else {
            if (MOTOR_run_test()) {
     588:	84 b3       	in	r24, 0x14	; 20
     58a:	88 71       	andi	r24, 0x18	; 24
     58c:	59 f0       	breq	.+22     	; 0x5a4 <__vector_11+0x86>
                motor_diag = motor_diag_cnt;
     58e:	80 91 1f 01 	lds	r24, 0x011F
     592:	90 91 20 01 	lds	r25, 0x0120
     596:	90 93 1d 01 	sts	0x011D, r25
     59a:	80 93 1c 01 	sts	0x011C, r24
                // motor fast STOP
                task|=(TASK_MOTOR_STOP);
     59e:	f5 9a       	sbi	0x1e, 5	; 30
#if THERMOTRONIC!=1   //not needed (no enable-Pin for motor) 
   PORTB &= ~(1<<PB7);   // PB7 LOW
#endif
}
static inline void MOTOR_H_BRIDGE_stop(void) {
   PORTG  =  0;          // PG3 LOW, PG4 LOW
     5a0:	14 ba       	out	0x14, r1	; 20
#if THERMOTRONIC!=1   //not needed (no enable-Pin for motor) 
   PORTB &= ~(1<<PB7);   // PB7 LOW
     5a2:	2f 98       	cbi	0x05, 7	; 5
                MOTOR_H_BRIDGE_stop();
            }
        }
    }
}
     5a4:	9f 91       	pop	r25
     5a6:	8f 91       	pop	r24
     5a8:	2f 91       	pop	r18
     5aa:	0f 90       	pop	r0
     5ac:	0f be       	out	0x3f, r0	; 63
     5ae:	0f 90       	pop	r0
     5b0:	1f 90       	pop	r1
     5b2:	18 95       	reti

000005b4 <__vector_2>:
 *
 * \note count light eye impulss: \ref MOTOR_PosAct
 *
 * \note create TASK_UPDATE_MOTOR_POS
 ******************************************************************************/
ISR (PCINT0_vect){
     5b4:	1f 92       	push	r1
     5b6:	0f 92       	push	r0
     5b8:	0f b6       	in	r0, 0x3f	; 63
     5ba:	0f 92       	push	r0
     5bc:	11 24       	eor	r1, r1
     5be:	1f 93       	push	r17
     5c0:	2f 93       	push	r18
     5c2:	3f 93       	push	r19
     5c4:	4f 93       	push	r20
     5c6:	5f 93       	push	r21
     5c8:	6f 93       	push	r22
     5ca:	7f 93       	push	r23
     5cc:	8f 93       	push	r24
     5ce:	9f 93       	push	r25
     5d0:	af 93       	push	r26
     5d2:	bf 93       	push	r27
     5d4:	ef 93       	push	r30
     5d6:	ff 93       	push	r31
    uint8_t pine=PINE;
     5d8:	5c b1       	in	r21, 0x0c	; 12
    #if (defined COM_RS232) || (defined COM_RS485)
        if ((pine & (1<<PE0)) == 0) {
     5da:	45 2f       	mov	r20, r21
     5dc:	50 fd       	sbrc	r21, 0
     5de:	0a c0       	rjmp	.+20     	; 0x5f4 <__vector_2+0x40>
            RS_enable_rx(); // it is macro, not function
     5e0:	80 91 c1 00 	lds	r24, 0x00C1
     5e4:	80 69       	ori	r24, 0x90	; 144
     5e6:	80 93 c1 00 	sts	0x00C1, r24
            PCMSK0 &= ~(1<<PCINT0); // deactivate interrupt
     5ea:	80 91 6b 00 	lds	r24, 0x006B
     5ee:	8e 7f       	andi	r24, 0xFE	; 254
     5f0:	80 93 6b 00 	sts	0x006B, r24
    // motor eye
    // count  HIGH impulses for HR20 and LOW Pulses for THERMOTRONIC
#if THERMOTRONIC==1
    if ((PCMSK0 & (1<<PCINT1)) && (((pine ^ pine_last) & (1<<PE1)) != 0)) {
#else
    if ((PCMSK0 & (1<<PCINT4)) && (((pine ^ pine_last) & (1<<PE4)) != 0)) {
     5f4:	80 91 6b 00 	lds	r24, 0x006B
     5f8:	84 ff       	sbrs	r24, 4
     5fa:	93 c0       	rjmp	.+294    	; 0x722 <__vector_2+0x16e>
     5fc:	80 91 23 01 	lds	r24, 0x0123
     600:	85 27       	eor	r24, r21
     602:	84 ff       	sbrs	r24, 4
     604:	8e c0       	rjmp	.+284    	; 0x722 <__vector_2+0x16e>
#endif
        uint16_t dur = motor_diag_cnt - last_eye_change;
     606:	20 91 1f 01 	lds	r18, 0x011F
     60a:	30 91 20 01 	lds	r19, 0x0120
     60e:	80 91 24 01 	lds	r24, 0x0124
     612:	90 91 25 01 	lds	r25, 0x0125
     616:	28 1b       	sub	r18, r24
     618:	39 0b       	sbc	r19, r25
        last_eye_change = motor_diag_cnt;
     61a:	80 91 1f 01 	lds	r24, 0x011F
     61e:	90 91 20 01 	lds	r25, 0x0120
     622:	90 93 25 01 	sts	0x0125, r25
     626:	80 93 24 01 	sts	0x0124, r24
#if THERMOTRONIC==1
        if ((pine & _BV(PE1))!=0) {
#else
        if ((pine & _BV(PE4))==0) {
     62a:	44 fd       	sbrc	r20, 4
     62c:	6f c0       	rjmp	.+222    	; 0x70c <__vector_2+0x158>
#endif
            if (dur > (config.motor_eye_high<<1)) {
     62e:	80 91 66 03 	lds	r24, 0x0366
     632:	90 e0       	ldi	r25, 0x00	; 0
     634:	88 0f       	add	r24, r24
     636:	99 1f       	adc	r25, r25
     638:	82 17       	cp	r24, r18
     63a:	93 07       	cpc	r25, r19
     63c:	08 f0       	brcs	.+2      	; 0x640 <__vector_2+0x8c>
     63e:	71 c0       	rjmp	.+226    	; 0x722 <__vector_2+0x16e>
                if (longest_low_eye > (config.motor_eye_low<<1)) {
     640:	20 91 26 01 	lds	r18, 0x0126
     644:	30 91 27 01 	lds	r19, 0x0127
     648:	80 91 65 03 	lds	r24, 0x0365
     64c:	90 e0       	ldi	r25, 0x00	; 0
     64e:	88 0f       	add	r24, r24
     650:	99 1f       	adc	r25, r25
     652:	82 17       	cp	r24, r18
     654:	93 07       	cpc	r25, r19
     656:	08 f0       	brcs	.+2      	; 0x65a <__vector_2+0xa6>
     658:	64 c0       	rjmp	.+200    	; 0x722 <__vector_2+0x16e>
                    MOTOR_PosAct+=MOTOR_Dir_Counter;
     65a:	80 91 18 01 	lds	r24, 0x0118
     65e:	90 91 19 01 	lds	r25, 0x0119
     662:	20 91 2a 01 	lds	r18, 0x012A
     666:	33 27       	eor	r19, r19
     668:	27 fd       	sbrc	r18, 7
     66a:	30 95       	com	r19
     66c:	28 0f       	add	r18, r24
     66e:	39 1f       	adc	r19, r25
     670:	30 93 19 01 	sts	0x0119, r19
     674:	20 93 18 01 	sts	0x0118, r18
                    if (!MOTOR_run_test()) MOTOR_PosOvershoot++;
     678:	84 b3       	in	r24, 0x14	; 20
     67a:	88 71       	andi	r24, 0x18	; 24
     67c:	29 f4       	brne	.+10     	; 0x688 <__vector_2+0xd4>
     67e:	80 91 1e 01 	lds	r24, 0x011E
     682:	8f 5f       	subi	r24, 0xFF	; 255
     684:	80 93 1e 01 	sts	0x011E, r24
                    #if DEBUG_MOTOR_COUNTER
                        MOTOR_counter++;
     688:	80 91 8e 02 	lds	r24, 0x028E
     68c:	90 91 8f 02 	lds	r25, 0x028F
     690:	a0 91 90 02 	lds	r26, 0x0290
     694:	b0 91 91 02 	lds	r27, 0x0291
     698:	01 96       	adiw	r24, 0x01	; 1
     69a:	a1 1d       	adc	r26, r1
     69c:	b1 1d       	adc	r27, r1
     69e:	80 93 8e 02 	sts	0x028E, r24
     6a2:	90 93 8f 02 	sts	0x028F, r25
     6a6:	a0 93 90 02 	sts	0x0290, r26
     6aa:	b0 93 91 02 	sts	0x0291, r27
                    #endif
                    motor_diag = motor_diag_cnt;
     6ae:	80 91 1f 01 	lds	r24, 0x011F
     6b2:	90 91 20 01 	lds	r25, 0x0120
     6b6:	90 93 1d 01 	sts	0x011D, r25
     6ba:	80 93 1c 01 	sts	0x011C, r24
                    longest_low_eye=0;
     6be:	10 92 27 01 	sts	0x0127, r1
     6c2:	10 92 26 01 	sts	0x0126, r1
                    motor_diag_cnt=0;
     6c6:	10 92 20 01 	sts	0x0120, r1
     6ca:	10 92 1f 01 	sts	0x011F, r1
                    last_eye_change=0;
     6ce:	10 92 25 01 	sts	0x0125, r1
     6d2:	10 92 24 01 	sts	0x0124, r1
                    task|=TASK_MOTOR_PULSE;
     6d6:	f4 9a       	sbi	0x1e, 4	; 30
                    if (MOTOR_PosAct == MOTOR_PosStop) {
     6d8:	20 91 18 01 	lds	r18, 0x0118
     6dc:	30 91 19 01 	lds	r19, 0x0119
     6e0:	80 91 28 01 	lds	r24, 0x0128
     6e4:	90 91 29 01 	lds	r25, 0x0129
     6e8:	28 17       	cp	r18, r24
     6ea:	39 07       	cpc	r19, r25
     6ec:	31 f4       	brne	.+12     	; 0x6fa <__vector_2+0x146>
                        // motor fast STOP
                        MOTOR_PosOvershoot=0;
     6ee:	10 92 1e 01 	sts	0x011E, r1
#if THERMOTRONIC!=1   //not needed (no enable-Pin for motor) 
   PORTB &= ~(1<<PB7);   // PB7 LOW
#endif
}
static inline void MOTOR_H_BRIDGE_stop(void) {
   PORTG  =  0;          // PG3 LOW, PG4 LOW
     6f2:	14 ba       	out	0x14, r1	; 20
#if THERMOTRONIC!=1   //not needed (no enable-Pin for motor) 
   PORTB &= ~(1<<PB7);   // PB7 LOW
     6f4:	2f 98       	cbi	0x05, 7	; 5
                        MOTOR_H_BRIDGE_stop();
                        task|=(TASK_MOTOR_STOP);
     6f6:	f5 9a       	sbi	0x1e, 5	; 30
     6f8:	14 c0       	rjmp	.+40     	; 0x722 <__vector_2+0x16e>
                    } else {
                        motor_timer = motor_max_time_for_impulse;
     6fa:	80 91 2b 01 	lds	r24, 0x012B
     6fe:	90 91 2c 01 	lds	r25, 0x012C
     702:	90 93 22 01 	sts	0x0122, r25
     706:	80 93 21 01 	sts	0x0121, r24
     70a:	0b c0       	rjmp	.+22     	; 0x722 <__vector_2+0x16e>
                        COM_putchar('~');
                    #endif
                }
            }
        } else {
            if (dur > longest_low_eye) longest_low_eye=dur;
     70c:	80 91 26 01 	lds	r24, 0x0126
     710:	90 91 27 01 	lds	r25, 0x0127
     714:	82 17       	cp	r24, r18
     716:	93 07       	cpc	r25, r19
     718:	20 f4       	brcc	.+8      	; 0x722 <__vector_2+0x16e>
     71a:	30 93 27 01 	sts	0x0127, r19
     71e:	20 93 26 01 	sts	0x0126, r18
        }
    }
    pine_last=pine;
     722:	50 93 23 01 	sts	0x0123, r21
    #if (RFM==1)
      if (PCMSK0 & _BV(RFM_SDO_PCINT)) {
     726:	80 91 6b 00 	lds	r24, 0x006B
     72a:	86 fd       	sbrc	r24, 6
     72c:	43 c0       	rjmp	.+134    	; 0x7b4 <__vector_2+0x200>
     72e:	44 c0       	rjmp	.+136    	; 0x7b8 <__vector_2+0x204>
      // RFM module interupt
        while (RFM_SDO_PIN & _BV(RFM_SDO_BITPOS)) {
          PCMSK0 &= ~_BV(RFM_SDO_PCINT); // disable RFM interrupt
     730:	80 91 6b 00 	lds	r24, 0x006B
     734:	8f 7b       	andi	r24, 0xBF	; 191
     736:	80 93 6b 00 	sts	0x006B, r24
          sei(); // enable global interrupts
     73a:	78 94       	sei
          if (rfm_mode == rfmmode_tx) {
     73c:	80 91 2a 02 	lds	r24, 0x022A
     740:	82 30       	cpi	r24, 0x02	; 2
     742:	c9 f4       	brne	.+50     	; 0x776 <__vector_2+0x1c2>
            RFM_WRITE(rfm_framebuf[rfm_framepos++]);
     744:	20 91 29 02 	lds	r18, 0x0229
     748:	e2 2f       	mov	r30, r18
     74a:	f0 e0       	ldi	r31, 0x00	; 0
     74c:	ef 53       	subi	r30, 0x3F	; 63
     74e:	fd 4f       	sbci	r31, 0xFD	; 253
     750:	80 81       	ld	r24, Z
     752:	90 e0       	ldi	r25, 0x00	; 0
     754:	2f 5f       	subi	r18, 0xFF	; 255
     756:	20 93 29 02 	sts	0x0229, r18
     75a:	98 6b       	ori	r25, 0xB8	; 184
     75c:	0e 94 29 0e 	call	0x1c52	; 0x1c52 <rfm_spi16>
            if (rfm_framepos >= rfm_framesize) {
     760:	90 91 29 02 	lds	r25, 0x0229
     764:	80 91 09 01 	lds	r24, 0x0109
     768:	98 17       	cp	r25, r24
     76a:	e0 f0       	brcs	.+56     	; 0x7a4 <__vector_2+0x1f0>
              rfm_mode = rfmmode_tx_done;
     76c:	83 e0       	ldi	r24, 0x03	; 3
     76e:	80 93 2a 02 	sts	0x022A, r24
              task |= TASK_RFM; // inform the rfm task about end of transmition
     772:	f7 9a       	sbi	0x1e, 7	; 30
     774:	21 c0       	rjmp	.+66     	; 0x7b8 <__vector_2+0x204>
              return; // \note !!WARNING!!
            }
		  } else if (rfm_mode == rfmmode_rx) {
     776:	84 30       	cpi	r24, 0x04	; 4
     778:	a9 f4       	brne	.+42     	; 0x7a4 <__vector_2+0x1f0>
	        rfm_framebuf[rfm_framepos++]=RFM_READ_FIFO();
     77a:	10 91 29 02 	lds	r17, 0x0229
     77e:	80 e0       	ldi	r24, 0x00	; 0
     780:	90 eb       	ldi	r25, 0xB0	; 176
     782:	0e 94 29 0e 	call	0x1c52	; 0x1c52 <rfm_spi16>
     786:	e1 2f       	mov	r30, r17
     788:	f0 e0       	ldi	r31, 0x00	; 0
     78a:	ef 53       	subi	r30, 0x3F	; 63
     78c:	fd 4f       	sbci	r31, 0xFD	; 253
     78e:	80 83       	st	Z, r24
     790:	1f 5f       	subi	r17, 0xFF	; 255
     792:	10 93 29 02 	sts	0x0229, r17
    		task |= TASK_RFM; // inform the rfm task about next RX byte
     796:	f7 9a       	sbi	0x1e, 7	; 30
        	if (rfm_framepos >= RFM_FRAME_MAX) {
     798:	10 35       	cpi	r17, 0x50	; 80
     79a:	20 f0       	brcs	.+8      	; 0x7a4 <__vector_2+0x1f0>
				rfm_mode = rfmmode_rx_owf;
     79c:	85 e0       	ldi	r24, 0x05	; 5
     79e:	80 93 2a 02 	sts	0x022A, r24
     7a2:	0a c0       	rjmp	.+20     	; 0x7b8 <__vector_2+0x204>
				// ignore any data in buffer
				return; // RFM interrupt disabled 
 			}
    	  } 
          cli(); // disable global interrupts
     7a4:	f8 94       	cli
          asm volatile("nop"); // we must have one instruction after cli() 
     7a6:	00 00       	nop
          PCMSK0 |= _BV(RFM_SDO_PCINT); // enable RFM interrupt
     7a8:	80 91 6b 00 	lds	r24, 0x006B
     7ac:	80 64       	ori	r24, 0x40	; 64
     7ae:	80 93 6b 00 	sts	0x006B, r24
          asm volatile("nop"); // we must have one instruction after
     7b2:	00 00       	nop
    }
    pine_last=pine;
    #if (RFM==1)
      if (PCMSK0 & _BV(RFM_SDO_PCINT)) {
      // RFM module interupt
        while (RFM_SDO_PIN & _BV(RFM_SDO_BITPOS)) {
     7b4:	66 99       	sbic	0x0c, 6	; 12
     7b6:	bc cf       	rjmp	.-136    	; 0x730 <__vector_2+0x17c>
          asm volatile("nop"); // we must have one instruction after
        }
    }
  #endif
  // do NOT add anything after RFM part
}
     7b8:	ff 91       	pop	r31
     7ba:	ef 91       	pop	r30
     7bc:	bf 91       	pop	r27
     7be:	af 91       	pop	r26
     7c0:	9f 91       	pop	r25
     7c2:	8f 91       	pop	r24
     7c4:	7f 91       	pop	r23
     7c6:	6f 91       	pop	r22
     7c8:	5f 91       	pop	r21
     7ca:	4f 91       	pop	r20
     7cc:	3f 91       	pop	r19
     7ce:	2f 91       	pop	r18
     7d0:	1f 91       	pop	r17
     7d2:	0f 90       	pop	r0
     7d4:	0f be       	out	0x3f, r0	; 63
     7d6:	0f 90       	pop	r0
     7d8:	1f 90       	pop	r1
     7da:	18 95       	reti

000007dc <MOTOR_timer_stop>:
 * motor timer
 *
 * \note called by TASK_MOTOR_STOP event
 *
 ******************************************************************************/
void MOTOR_timer_stop(void) {
     7dc:	1f 93       	push	r17
     7de:	cf 93       	push	r28
     7e0:	df 93       	push	r29
    motor_dir_t d = MOTOR_Dir;
     7e2:	10 91 92 02 	lds	r17, 0x0292
    MOTOR_Control(stop);
     7e6:	80 e0       	ldi	r24, 0x00	; 0
     7e8:	78 dd       	rcall	.-1296   	; 0x2da <MOTOR_Control>
    if (motor_timer>0) { // normal stop on wanted position 
     7ea:	80 91 21 01 	lds	r24, 0x0121
     7ee:	90 91 22 01 	lds	r25, 0x0122
     7f2:	89 2b       	or	r24, r25
     7f4:	31 f0       	breq	.+12     	; 0x802 <MOTOR_timer_stop+0x26>
            if (MOTOR_calibration_step != 0) {
     7f6:	80 91 00 01 	lds	r24, 0x0100
     7fa:	88 23       	and	r24, r24
     7fc:	09 f4       	brne	.+2      	; 0x800 <MOTOR_timer_stop+0x24>
     7fe:	6d c0       	rjmp	.+218    	; 0x8da <MOTOR_timer_stop+0xfe>
     800:	25 c0       	rjmp	.+74     	; 0x84c <MOTOR_timer_stop+0x70>
                MOTOR_calibration_step = -1;     // calibration error
                CTL_error |=  CTL_ERR_MOTOR;
            }
    } else { // stop on timeout
        if (d == open) { // stopped on end
     802:	11 30       	cpi	r17, 0x01	; 1
     804:	09 f0       	breq	.+2      	; 0x808 <MOTOR_timer_stop+0x2c>
     806:	40 c0       	rjmp	.+128    	; 0x888 <MOTOR_timer_stop+0xac>
            {
                int16_t a = MOTOR_PosAct; // volatile variable optimization
     808:	c0 91 18 01 	lds	r28, 0x0118
     80c:	d0 91 19 01 	lds	r29, 0x0119
                if (MOTOR_calibration_step == 2) {
     810:	80 91 00 01 	lds	r24, 0x0100
     814:	82 30       	cpi	r24, 0x02	; 2
     816:	79 f5       	brne	.+94     	; 0x876 <MOTOR_timer_stop+0x9a>
                    MOTOR_PosMax = a;
     818:	d0 93 1b 01 	sts	0x011B, r29
     81c:	c0 93 1a 01 	sts	0x011A, r28
                    if (MOTOR_ManuCalibration==0) {
     820:	80 91 6d 03 	lds	r24, 0x036D
     824:	90 91 6e 03 	lds	r25, 0x036E
     828:	89 2b       	or	r24, r25
     82a:	c9 f4       	brne	.+50     	; 0x85e <MOTOR_timer_stop+0x82>
                        if (a >= MOTOR_MIN_IMPULSES) {
     82c:	c4 36       	cpi	r28, 0x64	; 100
     82e:	d1 05       	cpc	r29, r1
     830:	6c f0       	brlt	.+26     	; 0x84c <MOTOR_timer_stop+0x70>
                            MOTOR_ManuCalibration = a;
     832:	d0 93 6e 03 	sts	0x036E, r29
     836:	c0 93 6d 03 	sts	0x036D, r28
                            eeprom_config_save((uint16_t)(&config.MOTOR_ManuCalibration_L)-(uint16_t)(&config));
     83a:	87 e1       	ldi	r24, 0x17	; 23
     83c:	0e 94 7c 16 	call	0x2cf8	; 0x2cf8 <eeprom_config_save>
                            eeprom_config_save((uint16_t)(&config.MOTOR_ManuCalibration_H)-(uint16_t)(&config));
     840:	88 e1       	ldi	r24, 0x18	; 24
     842:	0e 94 7c 16 	call	0x2cf8	; 0x2cf8 <eeprom_config_save>
                            MOTOR_calibration_step = 0;
     846:	10 92 00 01 	sts	0x0100, r1
     84a:	47 c0       	rjmp	.+142    	; 0x8da <MOTOR_timer_stop+0xfe>
                        } else {
                            MOTOR_calibration_step = -1;     // calibration error
     84c:	8f ef       	ldi	r24, 0xFF	; 255
     84e:	80 93 00 01 	sts	0x0100, r24
                            CTL_error |=  CTL_ERR_MOTOR;
     852:	80 91 30 01 	lds	r24, 0x0130
     856:	88 60       	ori	r24, 0x08	; 8
     858:	80 93 30 01 	sts	0x0130, r24
     85c:	3e c0       	rjmp	.+124    	; 0x8da <MOTOR_timer_stop+0xfe>
                        }
                    } else {
                        MOTOR_Control(close);
     85e:	8f ef       	ldi	r24, 0xFF	; 255
     860:	3c dd       	rcall	.-1416   	; 0x2da <MOTOR_Control>
                        MOTOR_PosStop= (a-MOTOR_MAX_IMPULSES);
     862:	c8 5e       	subi	r28, 0xE8	; 232
     864:	d3 40       	sbci	r29, 0x03	; 3
     866:	d0 93 29 01 	sts	0x0129, r29
     86a:	c0 93 28 01 	sts	0x0128, r28
                        MOTOR_calibration_step = 3;
     86e:	83 e0       	ldi	r24, 0x03	; 3
     870:	80 93 00 01 	sts	0x0100, r24
     874:	32 c0       	rjmp	.+100    	; 0x8da <MOTOR_timer_stop+0xfe>
                    }
                } else {
                    MOTOR_PosAct = MOTOR_PosMax; // motor position cleanup
     876:	80 91 1a 01 	lds	r24, 0x011A
     87a:	90 91 1b 01 	lds	r25, 0x011B
     87e:	90 93 19 01 	sts	0x0119, r25
     882:	80 93 18 01 	sts	0x0118, r24
     886:	29 c0       	rjmp	.+82     	; 0x8da <MOTOR_timer_stop+0xfe>
                }
            }
        } else if (d == close) { // stopped on end
     888:	1f 3f       	cpi	r17, 0xFF	; 255
     88a:	39 f5       	brne	.+78     	; 0x8da <MOTOR_timer_stop+0xfe>
            {
                if (MOTOR_calibration_step == 3 ) {
     88c:	80 91 00 01 	lds	r24, 0x0100
     890:	83 30       	cpi	r24, 0x03	; 3
     892:	89 f4       	brne	.+34     	; 0x8b6 <MOTOR_timer_stop+0xda>
                    MOTOR_calibration_step = 0;     // calibration DONE
     894:	10 92 00 01 	sts	0x0100, r1
                    MOTOR_PosMax -= MOTOR_PosAct;
     898:	20 91 18 01 	lds	r18, 0x0118
     89c:	30 91 19 01 	lds	r19, 0x0119
     8a0:	80 91 1a 01 	lds	r24, 0x011A
     8a4:	90 91 1b 01 	lds	r25, 0x011B
     8a8:	82 1b       	sub	r24, r18
     8aa:	93 0b       	sbc	r25, r19
     8ac:	90 93 1b 01 	sts	0x011B, r25
     8b0:	80 93 1a 01 	sts	0x011A, r24
     8b4:	0e c0       	rjmp	.+28     	; 0x8d2 <MOTOR_timer_stop+0xf6>
                } else if (MOTOR_PosAct>MOTOR_MIN_IMPULSES) {
     8b6:	80 91 18 01 	lds	r24, 0x0118
     8ba:	90 91 19 01 	lds	r25, 0x0119
     8be:	85 36       	cpi	r24, 0x65	; 101
     8c0:	91 05       	cpc	r25, r1
     8c2:	3c f0       	brlt	.+14     	; 0x8d2 <MOTOR_timer_stop+0xf6>
                    MOTOR_calibration_step = -1;     // calibration error
     8c4:	10 93 00 01 	sts	0x0100, r17
                    CTL_error |=  CTL_ERR_MOTOR;
     8c8:	80 91 30 01 	lds	r24, 0x0130
     8cc:	88 60       	ori	r24, 0x08	; 8
     8ce:	80 93 30 01 	sts	0x0130, r24
                }
                MOTOR_PosAct = 0; // cleanup position
     8d2:	10 92 19 01 	sts	0x0119, r1
     8d6:	10 92 18 01 	sts	0x0118, r1
            }
        }
    }
    if ((MOTOR_calibration_step == 0) &&
     8da:	80 91 00 01 	lds	r24, 0x0100
     8de:	88 23       	and	r24, r24
     8e0:	79 f4       	brne	.+30     	; 0x900 <MOTOR_timer_stop+0x124>
     8e2:	80 91 1a 01 	lds	r24, 0x011A
     8e6:	90 91 1b 01 	lds	r25, 0x011B
     8ea:	84 36       	cpi	r24, 0x64	; 100
     8ec:	91 05       	cpc	r25, r1
     8ee:	44 f4       	brge	.+16     	; 0x900 <MOTOR_timer_stop+0x124>
        (MOTOR_PosMax<MOTOR_MIN_IMPULSES)) {
        MOTOR_calibration_step = -1;     // calibration error
     8f0:	8f ef       	ldi	r24, 0xFF	; 255
     8f2:	80 93 00 01 	sts	0x0100, r24
        CTL_error |=  CTL_ERR_MOTOR;
     8f6:	80 91 30 01 	lds	r24, 0x0130
     8fa:	88 60       	ori	r24, 0x08	; 8
     8fc:	80 93 30 01 	sts	0x0130, r24
    } 
}
     900:	df 91       	pop	r29
     902:	cf 91       	pop	r28
     904:	1f 91       	pop	r17
     906:	08 95       	ret

00000908 <MOTOR_updateCalibration>:
 *  \param cal_type 3 = switch to auto  
 *  \note
 *  - must be called if the motor is unmounted
 ******************************************************************************/
void MOTOR_updateCalibration(uint8_t cal_type)
{
     908:	1f 93       	push	r17
     90a:	18 2f       	mov	r17, r24
    if (cal_type == 0) {
     90c:	88 23       	and	r24, r24
     90e:	b1 f4       	brne	.+44     	; 0x93c <MOTOR_updateCalibration+0x34>
        MOTOR_Control(stop);       // stop motor
     910:	80 e0       	ldi	r24, 0x00	; 0
     912:	e3 dc       	rcall	.-1594   	; 0x2da <MOTOR_Control>
        MOTOR_PosAct=0;                  // not calibrated
     914:	10 92 19 01 	sts	0x0119, r1
     918:	10 92 18 01 	sts	0x0118, r1
        MOTOR_PosMax=0;                  // not calibrated
     91c:	10 92 1b 01 	sts	0x011B, r1
     920:	10 92 1a 01 	sts	0x011A, r1
        MOTOR_calibration_step=-2;     // not calibrated
     924:	8e ef       	ldi	r24, 0xFE	; 254
     926:	80 93 00 01 	sts	0x0100, r24
        MOTOR_wait_for_new_calibration = 5;
     92a:	85 e0       	ldi	r24, 0x05	; 5
     92c:	80 93 02 01 	sts	0x0102, r24
        CTL_error &= ~CTL_ERR_MOTOR;
     930:	80 91 30 01 	lds	r24, 0x0130
     934:	87 7f       	andi	r24, 0xF7	; 247
     936:	80 93 30 01 	sts	0x0130, r24
     93a:	33 c0       	rjmp	.+102    	; 0x9a2 <MOTOR_updateCalibration+0x9a>
    } else {
        if (MOTOR_wait_for_new_calibration != 0) {
     93c:	80 91 02 01 	lds	r24, 0x0102
     940:	88 23       	and	r24, r24
     942:	21 f0       	breq	.+8      	; 0x94c <MOTOR_updateCalibration+0x44>
            MOTOR_wait_for_new_calibration--;
     944:	81 50       	subi	r24, 0x01	; 1
     946:	80 93 02 01 	sts	0x0102, r24
     94a:	0f c0       	rjmp	.+30     	; 0x96a <MOTOR_updateCalibration+0x62>
        } else {
            if (MOTOR_calibration_step==1) {
     94c:	80 91 00 01 	lds	r24, 0x0100
     950:	81 30       	cpi	r24, 0x01	; 1
     952:	59 f4       	brne	.+22     	; 0x96a <MOTOR_updateCalibration+0x62>
                MOTOR_calibration_step++;
     954:	82 e0       	ldi	r24, 0x02	; 2
     956:	80 93 00 01 	sts	0x0100, r24
                MOTOR_PosStop= +MOTOR_MAX_IMPULSES;
     95a:	88 ee       	ldi	r24, 0xE8	; 232
     95c:	93 e0       	ldi	r25, 0x03	; 3
     95e:	90 93 29 01 	sts	0x0129, r25
     962:	80 93 28 01 	sts	0x0128, r24
                MOTOR_Control(open);
     966:	81 e0       	ldi	r24, 0x01	; 1
     968:	b8 dc       	rcall	.-1680   	; 0x2da <MOTOR_Control>
            }
        }
        if (MOTOR_calibration_step==-2) {
     96a:	80 91 00 01 	lds	r24, 0x0100
     96e:	8e 3f       	cpi	r24, 0xFE	; 254
     970:	c1 f4       	brne	.+48     	; 0x9a2 <MOTOR_updateCalibration+0x9a>
            if (cal_type == 3) {
     972:	13 30       	cpi	r17, 0x03	; 3
     974:	69 f4       	brne	.+26     	; 0x990 <MOTOR_updateCalibration+0x88>
                MOTOR_ManuCalibration=-1;               // automatic calibration
     976:	8f ef       	ldi	r24, 0xFF	; 255
     978:	9f ef       	ldi	r25, 0xFF	; 255
     97a:	90 93 6e 03 	sts	0x036E, r25
     97e:	80 93 6d 03 	sts	0x036D, r24
                eeprom_config_save((uint16_t)(&config.MOTOR_ManuCalibration_L)-(uint16_t)(&config));
     982:	87 e1       	ldi	r24, 0x17	; 23
     984:	0e 94 7c 16 	call	0x2cf8	; 0x2cf8 <eeprom_config_save>
                eeprom_config_save((uint16_t)(&config.MOTOR_ManuCalibration_H)-(uint16_t)(&config));
     988:	88 e1       	ldi	r24, 0x18	; 24
     98a:	0e 94 7c 16 	call	0x2cf8	; 0x2cf8 <eeprom_config_save>
     98e:	06 c0       	rjmp	.+12     	; 0x99c <MOTOR_updateCalibration+0x94>
            }  else if (cal_type == 2) { 
     990:	12 30       	cpi	r17, 0x02	; 2
     992:	21 f4       	brne	.+8      	; 0x99c <MOTOR_updateCalibration+0x94>
                MOTOR_ManuCalibration=0;               // not calibrated
     994:	10 92 6e 03 	sts	0x036E, r1
     998:	10 92 6d 03 	sts	0x036D, r1
            }
            MOTOR_calibration_step=1;
     99c:	81 e0       	ldi	r24, 0x01	; 1
     99e:	80 93 00 01 	sts	0x0100, r24
        }
    }
}
     9a2:	1f 91       	pop	r17
     9a4:	08 95       	ret

000009a6 <CTL_temp_change_inc>:
 *  Change controller temperature (+-)
 *
 *  \param ch relative change
 ******************************************************************************/
void CTL_temp_change_inc (int8_t ch) {
    CTL_temp_wanted+=ch;
     9a6:	90 91 2d 01 	lds	r25, 0x012D
     9aa:	98 0f       	add	r25, r24
     9ac:	90 93 2d 01 	sts	0x012D, r25
	if (CTL_temp_wanted<TEMP_MIN-1) {
     9b0:	99 30       	cpi	r25, 0x09	; 9
     9b2:	10 f4       	brcc	.+4      	; 0x9b8 <CTL_temp_change_inc+0x12>
		CTL_temp_wanted= TEMP_MIN-1;
     9b4:	89 e0       	ldi	r24, 0x09	; 9
     9b6:	03 c0       	rjmp	.+6      	; 0x9be <CTL_temp_change_inc+0x18>
	} else if (CTL_temp_wanted>TEMP_MAX+1) {
     9b8:	9e 33       	cpi	r25, 0x3E	; 62
     9ba:	18 f0       	brcs	.+6      	; 0x9c2 <CTL_temp_change_inc+0x1c>
		CTL_temp_wanted= TEMP_MAX+1;
     9bc:	8d e3       	ldi	r24, 0x3D	; 61
     9be:	80 93 2d 01 	sts	0x012D, r24
	}
	CTL_mode_window = 0;
     9c2:	10 92 2f 01 	sts	0x012F, r1
    PID_force_update = 10;
     9c6:	8a e0       	ldi	r24, 0x0A	; 10
     9c8:	80 93 05 01 	sts	0x0105, r24
}
     9cc:	08 95       	ret

000009ce <CTL_change_mode>:
/*!
 *******************************************************************************
 *  Change controller mode
 *
 ******************************************************************************/
void CTL_change_mode(int8_t m) {
     9ce:	28 2f       	mov	r18, r24
    if (m == CTL_CHANGE_MODE) {
     9d0:	8f 3f       	cpi	r24, 0xFF	; 255
     9d2:	29 f4       	brne	.+10     	; 0x9de <CTL_change_mode+0x10>
        // change
  		menu_temp_rewoke=CTL_temp_auto;
     9d4:	80 91 2e 01 	lds	r24, 0x012E
     9d8:	80 93 35 01 	sts	0x0135, r24
     9dc:	06 c0       	rjmp	.+12     	; 0x9ea <CTL_change_mode+0x1c>
        CTL_mode_auto=!CTL_mode_auto;
        PID_force_update = 10;
    } else if (m == CTL_CHANGE_MODE_REWOKE) {
     9de:	8e 3f       	cpi	r24, 0xFE	; 254
     9e0:	81 f4       	brne	.+32     	; 0xa02 <CTL_change_mode+0x34>
        //rewoke
  		CTL_temp_auto=menu_temp_rewoke;
     9e2:	80 91 35 01 	lds	r24, 0x0135
     9e6:	80 93 2e 01 	sts	0x012E, r24
        CTL_mode_auto=!CTL_mode_auto;
     9ea:	90 e0       	ldi	r25, 0x00	; 0
     9ec:	80 91 04 01 	lds	r24, 0x0104
     9f0:	88 23       	and	r24, r24
     9f2:	09 f4       	brne	.+2      	; 0x9f6 <CTL_change_mode+0x28>
     9f4:	91 e0       	ldi	r25, 0x01	; 1
     9f6:	90 93 04 01 	sts	0x0104, r25
        PID_force_update = 10;
     9fa:	8a e0       	ldi	r24, 0x0A	; 10
     9fc:	80 93 05 01 	sts	0x0105, r24
     a00:	06 c0       	rjmp	.+12     	; 0xa0e <CTL_change_mode+0x40>
    } else {
        if (m >= 0) CTL_mode_auto=m;
     a02:	87 fd       	sbrc	r24, 7
     a04:	02 c0       	rjmp	.+4      	; 0xa0a <CTL_change_mode+0x3c>
     a06:	80 93 04 01 	sts	0x0104, r24
        PID_force_update = 0;
     a0a:	10 92 05 01 	sts	0x0105, r1
    }
    if (CTL_mode_auto && (m != CTL_CHANGE_MODE_REWOKE)) {
     a0e:	80 91 04 01 	lds	r24, 0x0104
     a12:	88 23       	and	r24, r24
     a14:	49 f0       	breq	.+18     	; 0xa28 <CTL_change_mode+0x5a>
     a16:	2e 3f       	cpi	r18, 0xFE	; 254
     a18:	39 f0       	breq	.+14     	; 0xa28 <CTL_change_mode+0x5a>
    	CTL_temp_wanted=(CTL_temp_auto=RTC_ActualTimerTemperature(false));
     a1a:	80 e0       	ldi	r24, 0x00	; 0
     a1c:	0e 94 74 10 	call	0x20e8	; 0x20e8 <RTC_ActualTimerTemperature>
     a20:	80 93 2e 01 	sts	0x012E, r24
     a24:	80 93 2d 01 	sts	0x012D, r24
    	// CTL_temp_auto=0;  //refresh wanted temperature in next step
    }
    CTL_mode_window = 0;
     a28:	10 92 2f 01 	sts	0x012F, r1
}
     a2c:	08 95       	ret

00000a2e <CTL_update>:
 *  \note call it once per second
 *  \param minute_ch is true when minute is changed
 *  \returns valve position
 *
 ******************************************************************************/
uint8_t CTL_update(bool minute_ch, uint8_t valve) {
     a2e:	cf 92       	push	r12
     a30:	df 92       	push	r13
     a32:	ef 92       	push	r14
     a34:	ff 92       	push	r15
     a36:	0f 93       	push	r16
     a38:	1f 93       	push	r17
     a3a:	c6 2e       	mov	r12, r22
#if (HW_WINDOW_DETECTION)
	PORTE |= _BV(PE2); // enable pull-up
     a3c:	72 9a       	sbi	0x0e, 2	; 14
#endif

    if ( minute_ch || (CTL_temp_auto==0) ) {
     a3e:	88 23       	and	r24, r24
     a40:	21 f4       	brne	.+8      	; 0xa4a <CTL_update+0x1c>
     a42:	80 91 2e 01 	lds	r24, 0x012E
     a46:	88 23       	and	r24, r24
     a48:	e9 f4       	brne	.+58     	; 0xa84 <CTL_update+0x56>
        // minutes changed or we need return to timers
        uint8_t t=RTC_ActualTimerTemperature(!(CTL_temp_auto==0));
     a4a:	90 e0       	ldi	r25, 0x00	; 0
     a4c:	80 91 2e 01 	lds	r24, 0x012E
     a50:	81 11       	cpse	r24, r1
     a52:	91 e0       	ldi	r25, 0x01	; 1
     a54:	89 2f       	mov	r24, r25
     a56:	0e 94 74 10 	call	0x20e8	; 0x20e8 <RTC_ActualTimerTemperature>
     a5a:	98 2f       	mov	r25, r24
        if (t!=0) {
     a5c:	88 23       	and	r24, r24
     a5e:	91 f0       	breq	.+36     	; 0xa84 <CTL_update+0x56>
            CTL_temp_auto=t;
     a60:	80 93 2e 01 	sts	0x012E, r24
            if (CTL_mode_auto) {
     a64:	80 91 04 01 	lds	r24, 0x0104
     a68:	88 23       	and	r24, r24
     a6a:	61 f0       	breq	.+24     	; 0xa84 <CTL_update+0x56>
                CTL_temp_wanted=CTL_temp_auto;
     a6c:	90 93 2d 01 	sts	0x012D, r25
                if ((PID_force_update<0)&&(CTL_temp_wanted!=CTL_temp_wanted_last)) {
     a70:	80 91 05 01 	lds	r24, 0x0105
     a74:	87 ff       	sbrs	r24, 7
     a76:	06 c0       	rjmp	.+12     	; 0xa84 <CTL_update+0x56>
     a78:	80 91 03 01 	lds	r24, 0x0103
     a7c:	98 17       	cp	r25, r24
     a7e:	11 f0       	breq	.+4      	; 0xa84 <CTL_update+0x56>
                    PID_force_update=0;
     a80:	10 92 05 01 	sts	0x0105, r1
#if (HW_WINDOW_DETECTION)
static void CTL_window_detection(void) {
	bool w;
	// PORTE |= _BV(PE2); // enable pull-up
	// nop();nop();
	w = ((PINE & _BV(PE2))!=0) && config.window_open_detection_enable;
     a84:	62 99       	sbic	0x0c, 2	; 12
     a86:	03 c0       	rjmp	.+6      	; 0xa8e <CTL_update+0x60>
     a88:	80 e0       	ldi	r24, 0x00	; 0
     a8a:	90 e0       	ldi	r25, 0x00	; 0
     a8c:	09 c0       	rjmp	.+18     	; 0xaa0 <CTL_update+0x72>
     a8e:	90 e0       	ldi	r25, 0x00	; 0
     a90:	80 91 7a 03 	lds	r24, 0x037A
     a94:	88 23       	and	r24, r24
     a96:	09 f4       	brne	.+2      	; 0xa9a <CTL_update+0x6c>
     a98:	91 e0       	ldi	r25, 0x01	; 1
     a9a:	81 e0       	ldi	r24, 0x01	; 1
     a9c:	98 27       	eor	r25, r24
     a9e:	89 2f       	mov	r24, r25
     aa0:	28 2f       	mov	r18, r24
	if (!w) PORTE &= ~_BV(PE2); // disable pullup for save energy
     aa2:	88 23       	and	r24, r24
     aa4:	09 f4       	brne	.+2      	; 0xaa8 <CTL_update+0x7a>
     aa6:	72 98       	cbi	0x0e, 2	; 14

	if (CTL_mode_window != w) {
     aa8:	80 91 2f 01 	lds	r24, 0x012F
     aac:	82 17       	cp	r24, r18
     aae:	59 f0       	breq	.+22     	; 0xac6 <CTL_update+0x98>
		if (window_timer==0) {
     ab0:	80 91 08 01 	lds	r24, 0x0108
     ab4:	88 23       	and	r24, r24
     ab6:	29 f4       	brne	.+10     	; 0xac2 <CTL_update+0x94>
			CTL_mode_window = w;
     ab8:	20 93 2f 01 	sts	0x012F, r18
			PID_force_update = 0;
     abc:	10 92 05 01 	sts	0x0105, r1
     ac0:	02 c0       	rjmp	.+4      	; 0xac6 <CTL_update+0x98>
			// kb_events |= KB_EVENT_UPDATE_LCD;
		} else {
			window_timer--;
     ac2:	81 50       	subi	r24, 0x01	; 1
     ac4:	07 c0       	rjmp	.+14     	; 0xad4 <CTL_update+0xa6>
			return;
		}
	}
	window_timer=(w)?(config.window_close_detection_delay):(config.window_open_detection_delay);
     ac6:	22 23       	and	r18, r18
     ac8:	19 f0       	breq	.+6      	; 0xad0 <CTL_update+0xa2>
     aca:	80 91 7c 03 	lds	r24, 0x037C
     ace:	02 c0       	rjmp	.+4      	; 0xad4 <CTL_update+0xa6>
     ad0:	80 91 7b 03 	lds	r24, 0x037B
     ad4:	80 93 08 01 	sts	0x0108, r24
            }
        }
    }

    CTL_window_detection();
    if (PID_update_timeout>0) PID_update_timeout--;
     ad8:	80 91 06 01 	lds	r24, 0x0106
     adc:	90 91 07 01 	lds	r25, 0x0107
     ae0:	00 97       	sbiw	r24, 0x00	; 0
     ae2:	29 f0       	breq	.+10     	; 0xaee <CTL_update+0xc0>
     ae4:	01 97       	sbiw	r24, 0x01	; 1
     ae6:	90 93 07 01 	sts	0x0107, r25
     aea:	80 93 06 01 	sts	0x0106, r24
    if (PID_force_update>0) PID_force_update--;
     aee:	80 91 05 01 	lds	r24, 0x0105
     af2:	18 16       	cp	r1, r24
     af4:	1c f4       	brge	.+6      	; 0xafc <CTL_update+0xce>
     af6:	81 50       	subi	r24, 0x01	; 1
     af8:	80 93 05 01 	sts	0x0105, r24
    if ((PID_update_timeout == 0)||(PID_force_update==0)) {
     afc:	40 91 06 01 	lds	r20, 0x0106
     b00:	50 91 07 01 	lds	r21, 0x0107
     b04:	41 15       	cp	r20, r1
     b06:	51 05       	cpc	r21, r1
     b08:	29 f0       	breq	.+10     	; 0xb14 <CTL_update+0xe6>
     b0a:	80 91 05 01 	lds	r24, 0x0105
     b0e:	88 23       	and	r24, r24
     b10:	09 f0       	breq	.+2      	; 0xb14 <CTL_update+0xe6>
     b12:	38 c1       	rjmp	.+624    	; 0xd84 <CTL_update+0x356>
        uint8_t temp;
        if ((CTL_temp_wanted<TEMP_MIN) || mode_window()) {
     b14:	30 91 2d 01 	lds	r19, 0x012D
     b18:	3a 30       	cpi	r19, 0x0A	; 10
     b1a:	18 f0       	brcs	.+6      	; 0xb22 <CTL_update+0xf4>
     b1c:	80 91 2f 01 	lds	r24, 0x012F
     b20:	81 11       	cpse	r24, r1
     b22:	3a e0       	ldi	r19, 0x0A	; 10
            temp = TEMP_MIN;  // frost protection to TEMP_MIN
        } else {
            temp = CTL_temp_wanted;
        }
        //update now
        if (temp!=CTL_temp_wanted_last) {
     b24:	80 91 03 01 	lds	r24, 0x0103
     b28:	38 17       	cp	r19, r24
     b2a:	39 f0       	breq	.+14     	; 0xb3a <CTL_update+0x10c>
            CTL_temp_wanted_last=temp;
     b2c:	30 93 03 01 	sts	0x0103, r19
            sumError=0;
     b30:	10 92 32 01 	sts	0x0132, r1
     b34:	10 92 31 01 	sts	0x0131, r1
     b38:	03 c0       	rjmp	.+6      	; 0xb40 <CTL_update+0x112>
            goto UPDATE_NOW; // optimization
        }
        if (PID_update_timeout == 0) {
     b3a:	45 2b       	or	r20, r21
     b3c:	09 f0       	breq	.+2      	; 0xb40 <CTL_update+0x112>
     b3e:	1d c1       	rjmp	.+570    	; 0xd7a <CTL_update+0x34c>
            UPDATE_NOW:
            PID_update_timeout = (config.PID_interval * 5); // new PID pooling
     b40:	80 91 5f 03 	lds	r24, 0x035F
     b44:	25 e0       	ldi	r18, 0x05	; 5
     b46:	82 9f       	mul	r24, r18
     b48:	c0 01       	movw	r24, r0
     b4a:	11 24       	eor	r1, r1
     b4c:	90 93 07 01 	sts	0x0107, r25
     b50:	80 93 06 01 	sts	0x0106, r24
            if (temp>TEMP_MAX) {
     b54:	3d 33       	cpi	r19, 0x3D	; 61
     b56:	08 f0       	brcs	.+2      	; 0xb5a <CTL_update+0x12c>
     b58:	e0 c0       	rjmp	.+448    	; 0xd1a <CTL_update+0x2ec>
                valve = config.valve_max;
            } else {
                valve = pid_Controller(calc_temp(temp),temp_average,valve);
     b5a:	e0 91 3a 02 	lds	r30, 0x023A
     b5e:	f0 91 3b 02 	lds	r31, 0x023B
 */
static uint8_t pid_Controller(int16_t setPoint, int16_t processValue, int8_t old_result)
{
  int32_t /*error2,*/ pi_term;
  int16_t error16, maxSumError;
  error16 = setPoint - processValue;
     b62:	82 e3       	ldi	r24, 0x32	; 50
     b64:	38 9f       	mul	r19, r24
     b66:	90 01       	movw	r18, r0
     b68:	11 24       	eor	r1, r1
     b6a:	2e 1b       	sub	r18, r30
     b6c:	3f 0b       	sbc	r19, r31
     b6e:	68 ef       	ldi	r22, 0xF8	; 248
     b70:	20 33       	cpi	r18, 0x30	; 48
     b72:	36 07       	cpc	r19, r22
     b74:	14 f4       	brge	.+4      	; 0xb7a <CTL_update+0x14c>
     b76:	20 e3       	ldi	r18, 0x30	; 48
     b78:	38 ef       	ldi	r19, 0xF8	; 248
     b7a:	89 01       	movw	r16, r18
     b7c:	77 e0       	ldi	r23, 0x07	; 7
     b7e:	21 3d       	cpi	r18, 0xD1	; 209
     b80:	37 07       	cpc	r19, r23
     b82:	14 f0       	brlt	.+4      	; 0xb88 <CTL_update+0x15a>
     b84:	00 ed       	ldi	r16, 0xD0	; 208
     b86:	17 e0       	ldi	r17, 0x07	; 7
    error16=-2000;
  }

  // Calculate Iterm and limit integral runaway
  {
    int16_t d = lastProcessValue - processValue;
     b88:	80 91 33 01 	lds	r24, 0x0133
     b8c:	90 91 34 01 	lds	r25, 0x0134
    if  ((lastProcessValue!=0)
     b90:	00 97       	sbiw	r24, 0x00	; 0
     b92:	09 f4       	brne	.+2      	; 0xb96 <CTL_update+0x168>
     b94:	43 c0       	rjmp	.+134    	; 0xc1c <CTL_update+0x1ee>
    error16=-2000;
  }

  // Calculate Iterm and limit integral runaway
  {
    int16_t d = lastProcessValue - processValue;
     b96:	8e 1b       	sub	r24, r30
     b98:	9f 0b       	sbc	r25, r31
    if  ((lastProcessValue!=0)
     b9a:	71 f4       	brne	.+28     	; 0xbb8 <CTL_update+0x18a>
     b9c:	98 01       	movw	r18, r16
     b9e:	17 ff       	sbrs	r17, 7
     ba0:	04 c0       	rjmp	.+8      	; 0xbaa <CTL_update+0x17c>
     ba2:	22 27       	eor	r18, r18
     ba4:	33 27       	eor	r19, r19
     ba6:	20 1b       	sub	r18, r16
     ba8:	31 0b       	sbc	r19, r17
     baa:	80 91 5e 03 	lds	r24, 0x035E
     bae:	90 e0       	ldi	r25, 0x00	; 0
     bb0:	82 17       	cp	r24, r18
     bb2:	93 07       	cpc	r25, r19
     bb4:	54 f0       	brlt	.+20     	; 0xbca <CTL_update+0x19c>
     bb6:	32 c0       	rjmp	.+100    	; 0xc1c <CTL_update+0x1ee>
     bb8:	18 16       	cp	r1, r24
     bba:	19 06       	cpc	r1, r25
     bbc:	24 f4       	brge	.+8      	; 0xbc6 <CTL_update+0x198>
     bbe:	10 16       	cp	r1, r16
     bc0:	11 06       	cpc	r1, r17
     bc2:	1c f0       	brlt	.+6      	; 0xbca <CTL_update+0x19c>
     bc4:	2b c0       	rjmp	.+86     	; 0xc1c <CTL_update+0x1ee>
     bc6:	17 ff       	sbrs	r17, 7
     bc8:	29 c0       	rjmp	.+82     	; 0xc1c <CTL_update+0x1ee>
		((d==0) && (abs(error16)>config.temp_tolerance))
	     || ((d>0)  && (error16>0))
	     || ((d<0)  && (error16<0))
	   )) {
        // update sumError if turn is wrong only
        int16_t max = (int16_t)scalling_factor*50/config.P_Factor;
     bca:	60 91 5c 03 	lds	r22, 0x035C
     bce:	80 e0       	ldi	r24, 0x00	; 0
     bd0:	92 e3       	ldi	r25, 0x32	; 50
     bd2:	70 e0       	ldi	r23, 0x00	; 0
     bd4:	0e 94 5a 1d 	call	0x3ab4	; 0x3ab4 <__divmodhi4>
        if (error16 > max) {  // maximum sumError change + limiter
     bd8:	60 17       	cp	r22, r16
     bda:	71 07       	cpc	r23, r17
     bdc:	5c f4       	brge	.+22     	; 0xbf4 <CTL_update+0x1c6>
          sumError += max;
     bde:	80 91 31 01 	lds	r24, 0x0131
     be2:	90 91 32 01 	lds	r25, 0x0132
     be6:	86 0f       	add	r24, r22
     be8:	97 1f       	adc	r25, r23
     bea:	90 93 32 01 	sts	0x0132, r25
     bee:	80 93 31 01 	sts	0x0131, r24
     bf2:	14 c0       	rjmp	.+40     	; 0xc1c <CTL_update+0x1ee>
        } else if (error16 < -max) { // maximum sumError change - limiter
     bf4:	88 27       	eor	r24, r24
     bf6:	99 27       	eor	r25, r25
     bf8:	86 1b       	sub	r24, r22
     bfa:	97 0b       	sbc	r25, r23
     bfc:	40 91 31 01 	lds	r20, 0x0131
     c00:	50 91 32 01 	lds	r21, 0x0132
     c04:	08 17       	cp	r16, r24
     c06:	19 07       	cpc	r17, r25
     c08:	1c f4       	brge	.+6      	; 0xc10 <CTL_update+0x1e2>
          sumError -= max;
     c0a:	46 1b       	sub	r20, r22
     c0c:	57 0b       	sbc	r21, r23
     c0e:	02 c0       	rjmp	.+4      	; 0xc14 <CTL_update+0x1e6>
        } else {
          sumError += error16;
     c10:	40 0f       	add	r20, r16
     c12:	51 1f       	adc	r21, r17
     c14:	50 93 32 01 	sts	0x0132, r21
     c18:	40 93 31 01 	sts	0x0131, r20
        }
    }
    lastProcessValue = processValue;
     c1c:	f0 93 34 01 	sts	0x0134, r31
     c20:	e0 93 33 01 	sts	0x0133, r30
  }
  if (config.I_Factor == 0) {
     c24:	d0 90 5d 03 	lds	r13, 0x035D
     c28:	dd 20       	and	r13, r13
     c2a:	19 f4       	brne	.+6      	; 0xc32 <CTL_update+0x204>
     c2c:	80 e0       	ldi	r24, 0x00	; 0
     c2e:	92 e3       	ldi	r25, 0x32	; 50
     c30:	07 c0       	rjmp	.+14     	; 0xc40 <CTL_update+0x212>
      maxSumError = 12800; // scalling_factor*50/1
  } else {
      // for overload protection: maximum is scalling_factor*50/1 = 12800
      maxSumError = ((int16_t)scalling_factor*50)/config.I_Factor;
     c32:	80 e0       	ldi	r24, 0x00	; 0
     c34:	92 e3       	ldi	r25, 0x32	; 50
     c36:	6d 2d       	mov	r22, r13
     c38:	70 e0       	ldi	r23, 0x00	; 0
     c3a:	0e 94 5a 1d 	call	0x3ab4	; 0x3ab4 <__divmodhi4>
     c3e:	cb 01       	movw	r24, r22
  }
  if(sumError > maxSumError){
     c40:	40 91 31 01 	lds	r20, 0x0131
     c44:	50 91 32 01 	lds	r21, 0x0132
     c48:	84 17       	cp	r24, r20
     c4a:	95 07       	cpc	r25, r21
     c4c:	2c f4       	brge	.+10     	; 0xc58 <CTL_update+0x22a>
    sumError = maxSumError;
     c4e:	90 93 32 01 	sts	0x0132, r25
     c52:	80 93 31 01 	sts	0x0131, r24
     c56:	0b c0       	rjmp	.+22     	; 0xc6e <CTL_update+0x240>
  } else if(sumError < -maxSumError){
     c58:	22 27       	eor	r18, r18
     c5a:	33 27       	eor	r19, r19
     c5c:	28 1b       	sub	r18, r24
     c5e:	39 0b       	sbc	r19, r25
     c60:	42 17       	cp	r20, r18
     c62:	53 07       	cpc	r21, r19
     c64:	24 f4       	brge	.+8      	; 0xc6e <CTL_update+0x240>
    sumError = -maxSumError;
     c66:	30 93 32 01 	sts	0x0132, r19
     c6a:	20 93 31 01 	sts	0x0131, r18
  }

  pi_term = ((int32_t)config.PP_Factor * (int32_t)abs(error16));
     c6e:	98 01       	movw	r18, r16
     c70:	17 ff       	sbrs	r17, 7
     c72:	04 c0       	rjmp	.+8      	; 0xc7c <CTL_update+0x24e>
     c74:	22 27       	eor	r18, r18
     c76:	33 27       	eor	r19, r19
     c78:	20 1b       	sub	r18, r16
     c7a:	31 0b       	sbc	r19, r17
     c7c:	b9 01       	movw	r22, r18
     c7e:	88 27       	eor	r24, r24
     c80:	77 fd       	sbrc	r23, 7
     c82:	80 95       	com	r24
     c84:	98 2f       	mov	r25, r24
     c86:	20 91 5b 03 	lds	r18, 0x035B
     c8a:	30 e0       	ldi	r19, 0x00	; 0
     c8c:	40 e0       	ldi	r20, 0x00	; 0
     c8e:	50 e0       	ldi	r21, 0x00	; 0
     c90:	0e 94 0e 1d 	call	0x3a1c	; 0x3a1c <__mulsi3>
     c94:	9b 01       	movw	r18, r22
     c96:	ac 01       	movw	r20, r24
  pi_term += (int32_t)((uint16_t)config.P_Factor <<8);
     c98:	70 91 5c 03 	lds	r23, 0x035C
     c9c:	60 e0       	ldi	r22, 0x00	; 0
     c9e:	80 e0       	ldi	r24, 0x00	; 0
     ca0:	90 e0       	ldi	r25, 0x00	; 0
     ca2:	62 0f       	add	r22, r18
     ca4:	73 1f       	adc	r23, r19
     ca6:	84 1f       	adc	r24, r20
     ca8:	95 1f       	adc	r25, r21
  pi_term *= (int32_t)error16;
     caa:	98 01       	movw	r18, r16
     cac:	44 27       	eor	r20, r20
     cae:	37 fd       	sbrc	r19, 7
     cb0:	40 95       	com	r20
     cb2:	54 2f       	mov	r21, r20
     cb4:	0e 94 0e 1d 	call	0x3a1c	; 0x3a1c <__mulsi3>
  pi_term >>= 8;
     cb8:	67 2f       	mov	r22, r23
     cba:	78 2f       	mov	r23, r24
     cbc:	89 2f       	mov	r24, r25
     cbe:	99 27       	eor	r25, r25
     cc0:	87 fd       	sbrc	r24, 7
     cc2:	9a 95       	dec	r25
  // pi_term - > for overload limit: maximum is +-(((255*2000)+255)*2000) = +-1020510000/256=3986367

  pi_term += (int16_t)(config.I_Factor) * (int16_t)sumError; // maximum is (scalling_factor*50/I_Factor)*I_Factor
     cc4:	30 91 61 03 	lds	r19, 0x0361
     cc8:	20 e0       	ldi	r18, 0x00	; 0
     cca:	79 01       	movw	r14, r18
     ccc:	00 27       	eor	r16, r16
     cce:	f7 fc       	sbrc	r15, 7
     cd0:	00 95       	com	r16
     cd2:	10 2f       	mov	r17, r16
     cd4:	4d 2d       	mov	r20, r13
     cd6:	50 e0       	ldi	r21, 0x00	; 0
     cd8:	20 91 31 01 	lds	r18, 0x0131
     cdc:	30 91 32 01 	lds	r19, 0x0132
     ce0:	f9 01       	movw	r30, r18
     ce2:	4e 9f       	mul	r20, r30
     ce4:	90 01       	movw	r18, r0
     ce6:	4f 9f       	mul	r20, r31
     ce8:	30 0d       	add	r19, r0
     cea:	5e 9f       	mul	r21, r30
     cec:	30 0d       	add	r19, r0
     cee:	11 24       	eor	r1, r1
     cf0:	44 27       	eor	r20, r20
     cf2:	37 fd       	sbrc	r19, 7
     cf4:	40 95       	com	r20
     cf6:	54 2f       	mov	r21, r20
     cf8:	e2 0e       	add	r14, r18
     cfa:	f3 1e       	adc	r15, r19
     cfc:	04 1f       	adc	r16, r20
     cfe:	15 1f       	adc	r17, r21
  // pi_term - > for overload limit: maximum is +- (3986367 + scalling_factor*50) = +-3999167

  pi_term += (int16_t)(config.valve_center)*scalling_factor;
     d00:	e6 0e       	add	r14, r22
     d02:	f7 1e       	adc	r15, r23
     d04:	08 1f       	adc	r16, r24
     d06:	19 1f       	adc	r17, r25
  if(pi_term > 100*scalling_factor){
     d08:	f1 e0       	ldi	r31, 0x01	; 1
     d0a:	ef 16       	cp	r14, r31
     d0c:	f4 e6       	ldi	r31, 0x64	; 100
     d0e:	ff 06       	cpc	r15, r31
     d10:	f0 e0       	ldi	r31, 0x00	; 0
     d12:	0f 07       	cpc	r16, r31
     d14:	f0 e0       	ldi	r31, 0x00	; 0
     d16:	1f 07       	cpc	r17, r31
     d18:	1c f0       	brlt	.+6      	; 0xd20 <CTL_update+0x2f2>
    return config.valve_max;
     d1a:	c0 90 62 03 	lds	r12, 0x0362
     d1e:	2d c0       	rjmp	.+90     	; 0xd7a <CTL_update+0x34c>
  } else if(pi_term < 0){
     d20:	17 ff       	sbrs	r17, 7
     d22:	03 c0       	rjmp	.+6      	; 0xd2a <CTL_update+0x2fc>
    return config.valve_min;
     d24:	c0 90 60 03 	lds	r12, 0x0360
     d28:	28 c0       	rjmp	.+80     	; 0xd7a <CTL_update+0x34c>
  // now we can use 16bit value
  {
    int16_t pi_term16 = pi_term;

    // ignore changes < 1%
    if (abs(pi_term16-((int16_t)(old_result)*scalling_factor))<scalling_factor) return old_result;
     d2a:	2c 2d       	mov	r18, r12
     d2c:	33 27       	eor	r19, r19
     d2e:	27 fd       	sbrc	r18, 7
     d30:	30 95       	com	r19
     d32:	80 e0       	ldi	r24, 0x00	; 0
     d34:	9f ef       	ldi	r25, 0xFF	; 255
     d36:	bc 01       	movw	r22, r24
     d38:	26 9f       	mul	r18, r22
     d3a:	c0 01       	movw	r24, r0
     d3c:	27 9f       	mul	r18, r23
     d3e:	90 0d       	add	r25, r0
     d40:	36 9f       	mul	r19, r22
     d42:	90 0d       	add	r25, r0
     d44:	11 24       	eor	r1, r1
     d46:	8e 0d       	add	r24, r14
     d48:	9f 1d       	adc	r25, r15
     d4a:	81 50       	subi	r24, 0x01	; 1
     d4c:	9f 4f       	sbci	r25, 0xFF	; 255
     d4e:	8f 5f       	subi	r24, 0xFF	; 255
     d50:	91 40       	sbci	r25, 0x01	; 1
     d52:	98 f0       	brcs	.+38     	; 0xd7a <CTL_update+0x34c>

    pi_term16 >>=8; //= scalling_factor;
     d54:	2f 2d       	mov	r18, r15
     d56:	33 27       	eor	r19, r19
     d58:	27 fd       	sbrc	r18, 7
     d5a:	3a 95       	dec	r19

    if(pi_term16 > config.valve_max){
     d5c:	c0 90 62 03 	lds	r12, 0x0362
     d60:	8c 2d       	mov	r24, r12
     d62:	90 e0       	ldi	r25, 0x00	; 0
     d64:	82 17       	cp	r24, r18
     d66:	93 07       	cpc	r25, r19
     d68:	44 f0       	brlt	.+16     	; 0xd7a <CTL_update+0x34c>
      return config.valve_max;
    } else if(pi_term16 < config.valve_min){
     d6a:	c0 90 60 03 	lds	r12, 0x0360
     d6e:	8c 2d       	mov	r24, r12
     d70:	90 e0       	ldi	r25, 0x00	; 0
     d72:	28 17       	cp	r18, r24
     d74:	39 07       	cpc	r19, r25
     d76:	0c f0       	brlt	.+2      	; 0xd7a <CTL_update+0x34c>
      return config.valve_min;
    }
    return((uint8_t)pi_term16);
     d78:	c2 2e       	mov	r12, r18
                valve = config.valve_max;
            } else {
                valve = pid_Controller(calc_temp(temp),temp_average,valve);
            }
        }
        COM_print_debug(valve);
     d7a:	8c 2d       	mov	r24, r12
     d7c:	07 d2       	rcall	.+1038   	; 0x118c <COM_print_debug>
        PID_force_update = -1; // invalid value = not used
     d7e:	8f ef       	ldi	r24, 0xFF	; 255
     d80:	80 93 05 01 	sts	0x0105, r24
    }
    // batt error detection
    if (bat_average) {
     d84:	20 91 38 02 	lds	r18, 0x0238
     d88:	30 91 39 02 	lds	r19, 0x0239
     d8c:	21 15       	cp	r18, r1
     d8e:	31 05       	cpc	r19, r1
     d90:	d1 f0       	breq	.+52     	; 0xdc6 <CTL_update+0x398>
		if (bat_average < 20*(uint16_t)config.bat_low_thld) {
     d92:	80 91 78 03 	lds	r24, 0x0378
     d96:	44 e1       	ldi	r20, 0x14	; 20
     d98:	84 9f       	mul	r24, r20
     d9a:	c0 01       	movw	r24, r0
     d9c:	11 24       	eor	r1, r1
     d9e:	28 17       	cp	r18, r24
     da0:	39 07       	cpc	r19, r25
     da2:	20 f4       	brcc	.+8      	; 0xdac <CTL_update+0x37e>
    	    CTL_error |=  CTL_ERR_BATT_LOW | CTL_ERR_BATT_WARNING;
     da4:	80 91 30 01 	lds	r24, 0x0130
     da8:	80 6c       	ori	r24, 0xC0	; 192
     daa:	0b c0       	rjmp	.+22     	; 0xdc2 <CTL_update+0x394>
	    } else {
	        if (bat_average < 20*(uint16_t)config.bat_warning_thld) {
     dac:	80 91 77 03 	lds	r24, 0x0377
     db0:	84 9f       	mul	r24, r20
     db2:	c0 01       	movw	r24, r0
     db4:	11 24       	eor	r1, r1
     db6:	28 17       	cp	r18, r24
     db8:	39 07       	cpc	r19, r25
     dba:	28 f4       	brcc	.+10     	; 0xdc6 <CTL_update+0x398>
	            CTL_error |=  CTL_ERR_BATT_WARNING;
     dbc:	80 91 30 01 	lds	r24, 0x0130
     dc0:	80 64       	ori	r24, 0x40	; 64
     dc2:	80 93 30 01 	sts	0x0130, r24
	        }
	    }
	}

    return valve;
}
     dc6:	8c 2d       	mov	r24, r12
     dc8:	1f 91       	pop	r17
     dca:	0f 91       	pop	r16
     dcc:	ff 90       	pop	r15
     dce:	ef 90       	pop	r14
     dd0:	df 90       	pop	r13
     dd2:	cf 90       	pop	r12
     dd4:	08 95       	ret

00000dd6 <__vector_15>:
#elif defined(_AVR_IOM169_H_)
ISR(USART0_TX_vect)
#elif defined(_AVR_IOM16_H_) || defined(_AVR_IOM32_H_)
ISR(USART_TXC_vect)
#endif
{
     dd6:	1f 92       	push	r1
     dd8:	0f 92       	push	r0
     dda:	0f b6       	in	r0, 0x3f	; 63
     ddc:	0f 92       	push	r0
     dde:	11 24       	eor	r1, r1
     de0:	8f 93       	push	r24
     de2:	ef 93       	push	r30
     de4:	ff 93       	push	r31
	#if defined COM_RS485
		// TODO: change rs485 to receive
		#error "code is not complete for rs485"
	#endif
	#ifdef _AVR_IOM169P_H_
		UCSR0B &= ~(_BV(TXCIE0)|_BV(TXEN0));
     de6:	e1 ec       	ldi	r30, 0xC1	; 193
     de8:	f0 e0       	ldi	r31, 0x00	; 0
     dea:	80 81       	ld	r24, Z
     dec:	87 7b       	andi	r24, 0xB7	; 183
     dee:	80 83       	st	Z, r24
	#elif defined(_AVR_IOM169_H_) || defined(_AVR_IOM16_H_) || defined(_AVR_IOM32_H_)
		UCSRB &= ~(_BV(TXCIE)|_BV(TXEN));
	#endif
}
     df0:	ff 91       	pop	r31
     df2:	ef 91       	pop	r30
     df4:	8f 91       	pop	r24
     df6:	0f 90       	pop	r0
     df8:	0f be       	out	0x3f, r0	; 63
     dfa:	0f 90       	pop	r0
     dfc:	1f 90       	pop	r1
     dfe:	18 95       	reti

00000e00 <RS_Init>:
	// Baudrate
	//long ubrr_val = ((F_CPU)/(baud*8L)-1);
	uint16_t ubrr_val = ((F_CPU)/(COM_BAUD_RATE*8L)-1);
 
	#ifdef _AVR_IOM169P_H_
		UCSR0A = _BV(U2X0);
     e00:	82 e0       	ldi	r24, 0x02	; 2
     e02:	80 93 c0 00 	sts	0x00C0, r24
		UBRR0H = (unsigned char)(ubrr_val>>8);
     e06:	10 92 c5 00 	sts	0x00C5, r1
		UBRR0L = (unsigned char)(ubrr_val & 0xFF);
     e0a:	83 e3       	ldi	r24, 0x33	; 51
     e0c:	80 93 c4 00 	sts	0x00C4, r24
		UCSR0C = (_BV(UCSZ00) | _BV(UCSZ01));     // Asynchron 8N1 
     e10:	86 e0       	ldi	r24, 0x06	; 6
     e12:	80 93 c2 00 	sts	0x00C2, r24
        #endif
	#else
		#error 'your CPU is not supported !'
	#endif
	#if !defined(_AVR_IOM16_H_) && !defined(_AVR_IOM32_H_)
    PCMSK0 |= (1<<PCINT0); // activate interrupt
     e16:	eb e6       	ldi	r30, 0x6B	; 107
     e18:	f0 e0       	ldi	r31, 0x00	; 0
     e1a:	80 81       	ld	r24, Z
     e1c:	81 60       	ori	r24, 0x01	; 1
     e1e:	80 83       	st	Z, r24
  #endif
}
     e20:	08 95       	ret

00000e22 <RS_startSend>:
 *  - we send the first char to serial port
 *  - start the interrupt
 ******************************************************************************/
void RS_startSend(void)
{
	cli();
     e22:	f8 94       	cli
	#if defined COM_RS485
		// TODO: change rs485 to transmit
		#error "code is not complete for rs485"
	#endif
	#ifdef _AVR_IOM169P_H_
		if ((UCSR0B & _BV(UDRIE0))==0) {
     e24:	80 91 c1 00 	lds	r24, 0x00C1
     e28:	85 fd       	sbrc	r24, 5
     e2a:	0f c0       	rjmp	.+30     	; 0xe4a <RS_startSend+0x28>
			UCSR0B &= ~(_BV(TXCIE0));
     e2c:	80 91 c1 00 	lds	r24, 0x00C1
     e30:	8f 7b       	andi	r24, 0xBF	; 191
     e32:	80 93 c1 00 	sts	0x00C1, r24
			UCSR0A |= _BV(TXC0); // clear interrupt flag
     e36:	80 91 c0 00 	lds	r24, 0x00C0
     e3a:	80 64       	ori	r24, 0x40	; 64
     e3c:	80 93 c0 00 	sts	0x00C0, r24
			UCSR0B |= _BV(UDRIE0) | _BV(TXEN0);
     e40:	80 91 c1 00 	lds	r24, 0x00C1
     e44:	88 62       	ori	r24, 0x28	; 40
     e46:	80 93 c1 00 	sts	0x00C1, r24
			UCSRA |= _BV(TXC); // clear interrupt flag
			UCSRB |= _BV(UDRIE)  | _BV(TXEN); 
			//UDR = COM_tx_char_isr(); // done in interrupt
		}
	#endif
	sei();
     e4a:	78 94       	sei
}
     e4c:	08 95       	ret

00000e4e <__vector_14>:
#ifdef _AVR_IOM169P_H_
ISR(USART0_UDRE_vect)
#elif defined(_AVR_IOM169_H_) || defined(_AVR_IOM16_H_)  || defined(_AVR_IOM32_H_)
ISR(USART_UDRE_vect)
#endif
{
     e4e:	1f 92       	push	r1
     e50:	0f 92       	push	r0
     e52:	0f b6       	in	r0, 0x3f	; 63
     e54:	0f 92       	push	r0
     e56:	11 24       	eor	r1, r1
     e58:	2f 93       	push	r18
     e5a:	3f 93       	push	r19
     e5c:	4f 93       	push	r20
     e5e:	5f 93       	push	r21
     e60:	6f 93       	push	r22
     e62:	7f 93       	push	r23
     e64:	8f 93       	push	r24
     e66:	9f 93       	push	r25
     e68:	af 93       	push	r26
     e6a:	bf 93       	push	r27
     e6c:	ef 93       	push	r30
     e6e:	ff 93       	push	r31
	char c;
	if ((c=COM_tx_char_isr())!='\0')
     e70:	86 d0       	rcall	.+268    	; 0xf7e <COM_tx_char_isr>
     e72:	88 23       	and	r24, r24
     e74:	19 f0       	breq	.+6      	; 0xe7c <__vector_14+0x2e>
	{
		#ifdef _AVR_IOM169P_H_
			UDR0 = c;
     e76:	80 93 c6 00 	sts	0x00C6, r24
     e7a:	0f c0       	rjmp	.+30     	; 0xe9a <__vector_14+0x4c>
		#endif
	}
	else	// no more chars, disable Interrupt
	{
		#ifdef _AVR_IOM169P_H_
			UCSR0B &= ~(_BV(UDRIE0));
     e7c:	80 91 c1 00 	lds	r24, 0x00C1
     e80:	8f 7d       	andi	r24, 0xDF	; 223
     e82:	80 93 c1 00 	sts	0x00C1, r24
			UCSR0A |= _BV(TXC0); // clear interrupt flag
     e86:	80 91 c0 00 	lds	r24, 0x00C0
     e8a:	80 64       	ori	r24, 0x40	; 64
     e8c:	80 93 c0 00 	sts	0x00C0, r24
			UCSR0B |= (_BV(TXCIE0));
     e90:	80 91 c1 00 	lds	r24, 0x00C1
     e94:	80 64       	ori	r24, 0x40	; 64
     e96:	80 93 c1 00 	sts	0x00C1, r24
			UCSRB &= ~(_BV(UDRIE));
			UCSRA |= _BV(TXC); // clear interrupt flag
			UCSRB |= (_BV(TXCIE));
		#endif
	}
}
     e9a:	ff 91       	pop	r31
     e9c:	ef 91       	pop	r30
     e9e:	bf 91       	pop	r27
     ea0:	af 91       	pop	r26
     ea2:	9f 91       	pop	r25
     ea4:	8f 91       	pop	r24
     ea6:	7f 91       	pop	r23
     ea8:	6f 91       	pop	r22
     eaa:	5f 91       	pop	r21
     eac:	4f 91       	pop	r20
     eae:	3f 91       	pop	r19
     eb0:	2f 91       	pop	r18
     eb2:	0f 90       	pop	r0
     eb4:	0f be       	out	0x3f, r0	; 63
     eb6:	0f 90       	pop	r0
     eb8:	1f 90       	pop	r1
     eba:	18 95       	reti

00000ebc <__vector_13>:
#elif defined(_AVR_IOM169_H_)
ISR(USART0_RX_vect)
#elif defined(_AVR_IOM16_H_) || defined(_AVR_IOM32_H_)
ISR(USART_RXC_vect)
#endif
{
     ebc:	1f 92       	push	r1
     ebe:	0f 92       	push	r0
     ec0:	0f b6       	in	r0, 0x3f	; 63
     ec2:	0f 92       	push	r0
     ec4:	11 24       	eor	r1, r1
     ec6:	2f 93       	push	r18
     ec8:	3f 93       	push	r19
     eca:	4f 93       	push	r20
     ecc:	5f 93       	push	r21
     ece:	6f 93       	push	r22
     ed0:	7f 93       	push	r23
     ed2:	8f 93       	push	r24
     ed4:	9f 93       	push	r25
     ed6:	af 93       	push	r26
     ed8:	bf 93       	push	r27
     eda:	ef 93       	push	r30
     edc:	ff 93       	push	r31
	#ifdef _AVR_IOM169P_H_
		COM_rx_char_isr(UDR0);	// Add char to input buffer
     ede:	80 91 c6 00 	lds	r24, 0x00C6
     ee2:	5f d0       	rcall	.+190    	; 0xfa2 <COM_rx_char_isr>
		UCSR0B &= ~(_BV(RXEN0)|_BV(RXCIE0)); // disable receive
     ee4:	e1 ec       	ldi	r30, 0xC1	; 193
     ee6:	f0 e0       	ldi	r31, 0x00	; 0
     ee8:	80 81       	ld	r24, Z
     eea:	8f 76       	andi	r24, 0x6F	; 111
     eec:	80 83       	st	Z, r24
		#if !defined(MASTER_CONFIG_H)
			UCSRB &= ~(_BV(RXEN)|_BV(RXCIE)); // disable receive
		#endif
	#endif
	#if !defined(_AVR_IOM16_H_) && !defined(_AVR_IOM32_H_)
    PCMSK0 |= (1<<PCINT0); // activate interrupt
     eee:	eb e6       	ldi	r30, 0x6B	; 107
     ef0:	f0 e0       	ldi	r31, 0x00	; 0
     ef2:	80 81       	ld	r24, Z
     ef4:	81 60       	ori	r24, 0x01	; 1
     ef6:	80 83       	st	Z, r24
  #endif
}
     ef8:	ff 91       	pop	r31
     efa:	ef 91       	pop	r30
     efc:	bf 91       	pop	r27
     efe:	af 91       	pop	r26
     f00:	9f 91       	pop	r25
     f02:	8f 91       	pop	r24
     f04:	7f 91       	pop	r23
     f06:	6f 91       	pop	r22
     f08:	5f 91       	pop	r21
     f0a:	4f 91       	pop	r20
     f0c:	3f 91       	pop	r19
     f0e:	2f 91       	pop	r18
     f10:	0f 90       	pop	r0
     f12:	0f be       	out	0x3f, r0	; 63
     f14:	0f 90       	pop	r0
     f16:	1f 90       	pop	r1
     f18:	18 95       	reti

00000f1a <watch>:
};

uint16_t watch(uint8_t addr) {
	uint16_t p;

	if (addr >= WATCH_N) return WATCH_LAYOUT;
     f1a:	8e 30       	cpi	r24, 0x0E	; 14
     f1c:	18 f0       	brcs	.+6      	; 0xf24 <watch+0xa>
     f1e:	22 e8       	ldi	r18, 0x82	; 130
     f20:	30 e0       	ldi	r19, 0x00	; 0
     f22:	11 c0       	rjmp	.+34     	; 0xf46 <watch+0x2c>

	p=pgm_read_word(&watch_map[addr]);
     f24:	e8 2f       	mov	r30, r24
     f26:	f0 e0       	ldi	r31, 0x00	; 0
     f28:	ee 0f       	add	r30, r30
     f2a:	ff 1f       	adc	r31, r31
     f2c:	e8 5e       	subi	r30, 0xE8	; 232
     f2e:	fe 4f       	sbci	r31, 0xFE	; 254
     f30:	a5 91       	lpm	r26, Z+
     f32:	b4 91       	lpm	r27, Z+
	if ((p&B_MASK)==B16) { // 16 bit value
     f34:	b7 ff       	sbrs	r27, 7
     f36:	04 c0       	rjmp	.+8      	; 0xf40 <watch+0x26>
		return *((uint16_t *)(p & ~B_MASK));
     f38:	bf 77       	andi	r27, 0x7F	; 127
     f3a:	2d 91       	ld	r18, X+
     f3c:	3c 91       	ld	r19, X
     f3e:	03 c0       	rjmp	.+6      	; 0xf46 <watch+0x2c>
	} else { // 8 bit value
		return (uint16_t)(*((uint8_t *)(p)));
     f40:	8c 91       	ld	r24, X
     f42:	28 2f       	mov	r18, r24
     f44:	30 e0       	ldi	r19, 0x00	; 0
	}
}
     f46:	c9 01       	movw	r24, r18
     f48:	08 95       	ret

00000f4a <COM_putchar>:
 *******************************************************************************
 *  \brief transmit bytes
 *
 *  \note
 ******************************************************************************/
void COM_putchar(char c) {
     f4a:	58 2f       	mov	r21, r24
	cli();
     f4c:	f8 94       	cli
	if ((tx_buff_in+1)%TX_BUFF_SIZE!=tx_buff_out) {
     f4e:	40 91 38 01 	lds	r20, 0x0138
     f52:	e4 2f       	mov	r30, r20
     f54:	f0 e0       	ldi	r31, 0x00	; 0
     f56:	9f 01       	movw	r18, r30
     f58:	2f 5f       	subi	r18, 0xFF	; 255
     f5a:	3f 4f       	sbci	r19, 0xFF	; 255
     f5c:	2f 77       	andi	r18, 0x7F	; 127
     f5e:	30 70       	andi	r19, 0x00	; 0
     f60:	80 91 39 01 	lds	r24, 0x0139
     f64:	90 e0       	ldi	r25, 0x00	; 0
     f66:	28 17       	cp	r18, r24
     f68:	39 07       	cpc	r19, r25
     f6a:	39 f0       	breq	.+14     	; 0xf7a <COM_putchar+0x30>
		tx_buff[tx_buff_in++]=c;
     f6c:	e6 5c       	subi	r30, 0xC6	; 198
     f6e:	fe 4f       	sbci	r31, 0xFE	; 254
     f70:	50 83       	st	Z, r21
		tx_buff_in%=TX_BUFF_SIZE;
     f72:	4f 5f       	subi	r20, 0xFF	; 255
     f74:	4f 77       	andi	r20, 0x7F	; 127
     f76:	40 93 38 01 	sts	0x0138, r20
	}
	sei();
     f7a:	78 94       	sei
}
     f7c:	08 95       	ret

00000f7e <COM_tx_char_isr>:
 *
 *  \note
 ******************************************************************************/
char COM_tx_char_isr(void) {
	char c='\0';
	if (tx_buff_in!=tx_buff_out) {
     f7e:	90 91 39 01 	lds	r25, 0x0139
     f82:	80 91 38 01 	lds	r24, 0x0138
     f86:	89 17       	cp	r24, r25
     f88:	11 f4       	brne	.+4      	; 0xf8e <COM_tx_char_isr+0x10>
     f8a:	80 e0       	ldi	r24, 0x00	; 0
     f8c:	08 95       	ret
		c=tx_buff[tx_buff_out++];
     f8e:	e9 2f       	mov	r30, r25
     f90:	f0 e0       	ldi	r31, 0x00	; 0
     f92:	e6 5c       	subi	r30, 0xC6	; 198
     f94:	fe 4f       	sbci	r31, 0xFE	; 254
     f96:	80 81       	ld	r24, Z
		tx_buff_out%=TX_BUFF_SIZE;
     f98:	9f 5f       	subi	r25, 0xFF	; 255
     f9a:	9f 77       	andi	r25, 0x7F	; 127
     f9c:	90 93 39 01 	sts	0x0139, r25
	}
	return c;
}
     fa0:	08 95       	ret

00000fa2 <COM_rx_char_isr>:
 *******************************************************************************
 *  \brief support for interrupt for receive bytes
 *
 *  \note
 ******************************************************************************/
void COM_rx_char_isr(char c) {
     fa2:	28 2f       	mov	r18, r24
	if (c!='\0') {  // ascii based protocol, \0 char is not alloweed, ignore it
     fa4:	88 23       	and	r24, r24
     fa6:	f9 f0       	breq	.+62     	; 0xfe6 <COM_rx_char_isr+0x44>
 		if (c=='\r') c='\n';  // mask diffrence between operating systems
     fa8:	8d 30       	cpi	r24, 0x0D	; 13
     faa:	09 f4       	brne	.+2      	; 0xfae <COM_rx_char_isr+0xc>
     fac:	2a e0       	ldi	r18, 0x0A	; 10
		rx_buff[rx_buff_in++]=c;
     fae:	80 91 36 01 	lds	r24, 0x0136
     fb2:	e8 2f       	mov	r30, r24
     fb4:	f0 e0       	ldi	r31, 0x00	; 0
     fb6:	e6 54       	subi	r30, 0x46	; 70
     fb8:	fe 4f       	sbci	r31, 0xFE	; 254
     fba:	20 83       	st	Z, r18
		rx_buff_in%=RX_BUFF_SIZE;
     fbc:	98 2f       	mov	r25, r24
     fbe:	9f 5f       	subi	r25, 0xFF	; 255
     fc0:	9f 71       	andi	r25, 0x1F	; 31
     fc2:	90 93 36 01 	sts	0x0136, r25
		if (rx_buff_in==rx_buff_out) { // buffer overloaded, drop oldest char 
     fc6:	80 91 37 01 	lds	r24, 0x0137
     fca:	98 17       	cp	r25, r24
     fcc:	21 f4       	brne	.+8      	; 0xfd6 <COM_rx_char_isr+0x34>
			rx_buff_out++;
			rx_buff_out%=RX_BUFF_SIZE;
     fce:	9f 5f       	subi	r25, 0xFF	; 255
     fd0:	9f 71       	andi	r25, 0x1F	; 31
     fd2:	90 93 37 01 	sts	0x0137, r25
		}
		if (c=='\n') {
     fd6:	2a 30       	cpi	r18, 0x0A	; 10
     fd8:	31 f4       	brne	.+12     	; 0xfe6 <COM_rx_char_isr+0x44>
			task |= TASK_COM;
     fda:	f6 9a       	sbi	0x1e, 6	; 30
			COM_requests++;
     fdc:	80 91 da 01 	lds	r24, 0x01DA
     fe0:	8f 5f       	subi	r24, 0xFF	; 255
     fe2:	80 93 da 01 	sts	0x01DA, r24
     fe6:	08 95       	ret

00000fe8 <COM_getchar>:
 *
 *  \note
 ******************************************************************************/
static char COM_getchar(void) {
	char c;
	cli();
     fe8:	f8 94       	cli
	if (rx_buff_in!=rx_buff_out) {
     fea:	90 91 37 01 	lds	r25, 0x0137
     fee:	80 91 36 01 	lds	r24, 0x0136
     ff2:	89 17       	cp	r24, r25
     ff4:	79 f0       	breq	.+30     	; 0x1014 <COM_getchar+0x2c>
		c=rx_buff[rx_buff_out++];
     ff6:	e9 2f       	mov	r30, r25
     ff8:	f0 e0       	ldi	r31, 0x00	; 0
     ffa:	e6 54       	subi	r30, 0x46	; 70
     ffc:	fe 4f       	sbci	r31, 0xFE	; 254
     ffe:	e0 81       	ld	r30, Z
		rx_buff_out%=RX_BUFF_SIZE;
    1000:	9f 5f       	subi	r25, 0xFF	; 255
    1002:	9f 71       	andi	r25, 0x1F	; 31
    1004:	90 93 37 01 	sts	0x0137, r25
    	COM_requests--;
    1008:	80 91 da 01 	lds	r24, 0x01DA
    100c:	81 50       	subi	r24, 0x01	; 1
    100e:	80 93 da 01 	sts	0x01DA, r24
    1012:	03 c0       	rjmp	.+6      	; 0x101a <COM_getchar+0x32>
	} else {
    	COM_requests=0;
    1014:	10 92 da 01 	sts	0x01DA, r1
    1018:	e0 e0       	ldi	r30, 0x00	; 0
        c='\0';
    }
	sei();
    101a:	78 94       	sei
	return c;
}
    101c:	8e 2f       	mov	r24, r30
    101e:	08 95       	ret

00001020 <print_decXX>:
 *******************************************************************************
 *  \brief helper function print 2 digit dec number
 *
 *  \note only unsigned numbers
 ******************************************************************************/
static void print_decXX(uint8_t i) {
    1020:	1f 93       	push	r17
    1022:	18 2f       	mov	r17, r24
	if (i>=100) {
    1024:	84 36       	cpi	r24, 0x64	; 100
    1026:	50 f0       	brcs	.+20     	; 0x103c <print_decXX+0x1c>
		COM_putchar(i/100+'0');
    1028:	64 e6       	ldi	r22, 0x64	; 100
    102a:	0e 94 2d 1d 	call	0x3a5a	; 0x3a5a <__udivmodqi4>
    102e:	80 5d       	subi	r24, 0xD0	; 208
    1030:	8c df       	rcall	.-232    	; 0xf4a <COM_putchar>
		i%=100;
    1032:	81 2f       	mov	r24, r17
    1034:	64 e6       	ldi	r22, 0x64	; 100
    1036:	0e 94 2d 1d 	call	0x3a5a	; 0x3a5a <__udivmodqi4>
    103a:	19 2f       	mov	r17, r25
	}
	COM_putchar(i/10+'0');
    103c:	81 2f       	mov	r24, r17
    103e:	6a e0       	ldi	r22, 0x0A	; 10
    1040:	0e 94 2d 1d 	call	0x3a5a	; 0x3a5a <__udivmodqi4>
    1044:	80 5d       	subi	r24, 0xD0	; 208
    1046:	81 df       	rcall	.-254    	; 0xf4a <COM_putchar>
	COM_putchar(i%10+'0');
    1048:	81 2f       	mov	r24, r17
    104a:	6a e0       	ldi	r22, 0x0A	; 10
    104c:	0e 94 2d 1d 	call	0x3a5a	; 0x3a5a <__udivmodqi4>
    1050:	89 2f       	mov	r24, r25
    1052:	80 5d       	subi	r24, 0xD0	; 208
    1054:	7a df       	rcall	.-268    	; 0xf4a <COM_putchar>
}
    1056:	1f 91       	pop	r17
    1058:	08 95       	ret

0000105a <print_decXXXX>:
 *******************************************************************************
 *  \brief helper function print 4 digit dec number
 *
 *  \note only unsigned numbers
 ******************************************************************************/
static void print_decXXXX(uint16_t i) {
    105a:	0f 93       	push	r16
    105c:	1f 93       	push	r17
    105e:	8c 01       	movw	r16, r24
	print_decXX(i/100);
    1060:	64 e6       	ldi	r22, 0x64	; 100
    1062:	70 e0       	ldi	r23, 0x00	; 0
    1064:	0e 94 46 1d 	call	0x3a8c	; 0x3a8c <__udivmodhi4>
    1068:	86 2f       	mov	r24, r22
    106a:	da df       	rcall	.-76     	; 0x1020 <print_decXX>
	print_decXX(i%100);
    106c:	c8 01       	movw	r24, r16
    106e:	64 e6       	ldi	r22, 0x64	; 100
    1070:	70 e0       	ldi	r23, 0x00	; 0
    1072:	0e 94 46 1d 	call	0x3a8c	; 0x3a8c <__udivmodhi4>
    1076:	d4 df       	rcall	.-88     	; 0x1020 <print_decXX>
}
    1078:	1f 91       	pop	r17
    107a:	0f 91       	pop	r16
    107c:	08 95       	ret

0000107e <print_hexXX>:
 *******************************************************************************
 *  \brief helper function print 2 digit dec number
 *
 *  \note only unsigned numbers
 ******************************************************************************/
static void print_hexXX(uint8_t i) {
    107e:	1f 93       	push	r17
    1080:	18 2f       	mov	r17, r24
	uint8_t x = i>>4;
    1082:	82 95       	swap	r24
    1084:	8f 70       	andi	r24, 0x0F	; 15
	if (x>=10) {
    1086:	8a 30       	cpi	r24, 0x0A	; 10
    1088:	10 f0       	brcs	.+4      	; 0x108e <print_hexXX+0x10>
		COM_putchar(x+'a'-10);	
    108a:	89 5a       	subi	r24, 0xA9	; 169
    108c:	01 c0       	rjmp	.+2      	; 0x1090 <print_hexXX+0x12>
	} else {
		COM_putchar(x+'0');
    108e:	80 5d       	subi	r24, 0xD0	; 208
    1090:	5c df       	rcall	.-328    	; 0xf4a <COM_putchar>
	}	
	x = i & 0xf;
    1092:	81 2f       	mov	r24, r17
    1094:	8f 70       	andi	r24, 0x0F	; 15
	if (x>=10) {
    1096:	8a 30       	cpi	r24, 0x0A	; 10
    1098:	10 f0       	brcs	.+4      	; 0x109e <print_hexXX+0x20>
		COM_putchar(x+'a'-10);	
    109a:	89 5a       	subi	r24, 0xA9	; 169
    109c:	01 c0       	rjmp	.+2      	; 0x10a0 <print_hexXX+0x22>
	} else {
		COM_putchar(x+'0');
    109e:	80 5d       	subi	r24, 0xD0	; 208
    10a0:	54 df       	rcall	.-344    	; 0xf4a <COM_putchar>
	}	
}
    10a2:	1f 91       	pop	r17
    10a4:	08 95       	ret

000010a6 <print_hexXXXX>:
 *******************************************************************************
 *  \brief helper function print 4 digit dec number
 *
 *  \note only unsigned numbers
 ******************************************************************************/
static void print_hexXXXX(uint16_t i) {
    10a6:	1f 93       	push	r17
    10a8:	18 2f       	mov	r17, r24
	print_hexXX(i>>8);
    10aa:	89 2f       	mov	r24, r25
    10ac:	e8 df       	rcall	.-48     	; 0x107e <print_hexXX>
	print_hexXX(i&0xff);
    10ae:	81 2f       	mov	r24, r17
    10b0:	e6 df       	rcall	.-52     	; 0x107e <print_hexXX>
}
    10b2:	1f 91       	pop	r17
    10b4:	08 95       	ret

000010b6 <print_s_p>:
 *******************************************************************************
 *  \brief helper function print string without \n2 digit dec number
 *
 *  \note only unsigned numbers
 ******************************************************************************/
static void print_s_p(const char * s) {
    10b6:	cf 93       	push	r28
    10b8:	df 93       	push	r29
    10ba:	ec 01       	movw	r28, r24
	char c;
	for (c = pgm_read_byte(s); c; ++s, c = pgm_read_byte(s)) {
    10bc:	fc 01       	movw	r30, r24
    10be:	84 91       	lpm	r24, Z+
    10c0:	04 c0       	rjmp	.+8      	; 0x10ca <print_s_p+0x14>
      COM_putchar(c);
    10c2:	43 df       	rcall	.-378    	; 0xf4a <COM_putchar>
 *
 *  \note only unsigned numbers
 ******************************************************************************/
static void print_s_p(const char * s) {
	char c;
	for (c = pgm_read_byte(s); c; ++s, c = pgm_read_byte(s)) {
    10c4:	21 96       	adiw	r28, 0x01	; 1
    10c6:	fe 01       	movw	r30, r28
    10c8:	84 91       	lpm	r24, Z+
    10ca:	88 23       	and	r24, r24
    10cc:	d1 f7       	brne	.-12     	; 0x10c2 <print_s_p+0xc>
      COM_putchar(c);
   	}
}
    10ce:	df 91       	pop	r29
    10d0:	cf 91       	pop	r28
    10d2:	08 95       	ret

000010d4 <COM_hex_parse>:
 *  \brief parse hex number (helper function)
 *
 *	\note hex numbers use ONLY lowcase chars, upcase is reserved for commands
 *	
 ******************************************************************************/
static char COM_hex_parse (uint8_t n) {
    10d4:	0f 93       	push	r16
    10d6:	1f 93       	push	r17
    10d8:	08 2f       	mov	r16, r24
    10da:	10 e0       	ldi	r17, 0x00	; 0
    10dc:	1b c0       	rjmp	.+54     	; 0x1114 <COM_hex_parse+0x40>
	uint8_t i;
	for (i=0;i<n;i++) {
    	uint8_t c = COM_getchar()-'0';
    10de:	84 df       	rcall	.-248    	; 0xfe8 <COM_getchar>
    10e0:	98 2f       	mov	r25, r24
    10e2:	28 2f       	mov	r18, r24
    10e4:	20 53       	subi	r18, 0x30	; 48
    	if ( c>9 ) {  // chars < '0' overload var c
    10e6:	2a 30       	cpi	r18, 0x0A	; 10
    10e8:	20 f0       	brcs	.+8      	; 0x10f2 <COM_hex_parse+0x1e>
			if ((c>=('a'-'0')) && (c<=('f'-'0'))) {
    10ea:	81 56       	subi	r24, 0x61	; 97
    10ec:	86 30       	cpi	r24, 0x06	; 6
    10ee:	c8 f4       	brcc	.+50     	; 0x1122 <COM_hex_parse+0x4e>
    			c-= (('a'-'0')-10);
    10f0:	27 52       	subi	r18, 0x27	; 39
    10f2:	e1 2f       	mov	r30, r17
    10f4:	e6 95       	lsr	r30
			} else return c+'0';
		}
    	if (i&1) {
    10f6:	10 ff       	sbrs	r17, 0
    10f8:	06 c0       	rjmp	.+12     	; 0x1106 <COM_hex_parse+0x32>
    	   com_hex[i>>1]+=c;
    10fa:	f0 e0       	ldi	r31, 0x00	; 0
    10fc:	e5 52       	subi	r30, 0x25	; 37
    10fe:	fe 4f       	sbci	r31, 0xFE	; 254
    1100:	80 81       	ld	r24, Z
    1102:	28 0f       	add	r18, r24
    1104:	05 c0       	rjmp	.+10     	; 0x1110 <COM_hex_parse+0x3c>
        } else {
    	   com_hex[i>>1]=(uint8_t)c<<4;
    1106:	f0 e0       	ldi	r31, 0x00	; 0
    1108:	e5 52       	subi	r30, 0x25	; 37
    110a:	fe 4f       	sbci	r31, 0xFE	; 254
    110c:	22 95       	swap	r18
    110e:	20 7f       	andi	r18, 0xF0	; 240
    1110:	20 83       	st	Z, r18
 *	\note hex numbers use ONLY lowcase chars, upcase is reserved for commands
 *	
 ******************************************************************************/
static char COM_hex_parse (uint8_t n) {
	uint8_t i;
	for (i=0;i<n;i++) {
    1112:	1f 5f       	subi	r17, 0xFF	; 255
    1114:	10 17       	cp	r17, r16
    1116:	18 f3       	brcs	.-58     	; 0x10de <COM_hex_parse+0xa>
    	   com_hex[i>>1]=(uint8_t)c<<4;
        }
    }
	{
		char c;
    	if ((c=COM_getchar())!='\n') return c;
    1118:	67 df       	rcall	.-306    	; 0xfe8 <COM_getchar>
    111a:	98 2f       	mov	r25, r24
    111c:	8a 30       	cpi	r24, 0x0A	; 10
    111e:	09 f4       	brne	.+2      	; 0x1122 <COM_hex_parse+0x4e>
    1120:	90 e0       	ldi	r25, 0x00	; 0
	}
	return '\0';
}
    1122:	89 2f       	mov	r24, r25
    1124:	1f 91       	pop	r17
    1126:	0f 91       	pop	r16
    1128:	08 95       	ret

0000112a <print_idx>:
/*!
 *******************************************************************************
 *  \brief print X[xx]=
 *
 ******************************************************************************/
static void print_idx(char t, uint8_t i) {
    112a:	1f 93       	push	r17
    112c:	16 2f       	mov	r17, r22
    COM_putchar(t);
    112e:	0d df       	rcall	.-486    	; 0xf4a <COM_putchar>
    COM_putchar('[');
    1130:	8b e5       	ldi	r24, 0x5B	; 91
    1132:	0b df       	rcall	.-490    	; 0xf4a <COM_putchar>
    print_hexXX(i);
    1134:	81 2f       	mov	r24, r17
    1136:	a3 df       	rcall	.-186    	; 0x107e <print_hexXX>
    COM_putchar(']');
    1138:	8d e5       	ldi	r24, 0x5D	; 93
    113a:	07 df       	rcall	.-498    	; 0xf4a <COM_putchar>
    COM_putchar('=');
    113c:	8d e3       	ldi	r24, 0x3D	; 61
    113e:	05 df       	rcall	.-502    	; 0xf4a <COM_putchar>
}
    1140:	1f 91       	pop	r17
    1142:	08 95       	ret

00001144 <print_version>:
 *******************************************************************************
 *  \brief helper function print version string
 *
 *  \note
 ******************************************************************************/
static void print_version(bool sync) {
    1144:	0f 93       	push	r16
    1146:	1f 93       	push	r17
    1148:	cf 93       	push	r28
    114a:	df 93       	push	r29
    114c:	08 2f       	mov	r16, r24
	const char * s = (PSTR(VERSION_STRING "\n"));
    COM_putchar('V');
    114e:	86 e5       	ldi	r24, 0x56	; 86
    1150:	fc de       	rcall	.-520    	; 0xf4a <COM_putchar>
 *  \brief helper function print version string
 *
 *  \note
 ******************************************************************************/
static void print_version(bool sync) {
	const char * s = (PSTR(VERSION_STRING "\n"));
    1152:	e4 e3       	ldi	r30, 0x34	; 52
    1154:	f1 e0       	ldi	r31, 0x01	; 1
    1156:	14 91       	lpm	r17, Z+
    1158:	ef 01       	movw	r28, r30
    115a:	09 c0       	rjmp	.+18     	; 0x116e <print_version+0x2a>
    COM_putchar('V');
	char c;
	for (c = pgm_read_byte(s); c; ++s, c = pgm_read_byte(s)) {
      COM_putchar(c);
    115c:	81 2f       	mov	r24, r17
    115e:	f5 de       	rcall	.-534    	; 0xf4a <COM_putchar>
      #if RFM==1
        if (sync) wireless_putchar(c);
    1160:	00 23       	and	r16, r16
    1162:	11 f0       	breq	.+4      	; 0x1168 <print_version+0x24>
    1164:	81 2f       	mov	r24, r17
    1166:	a9 d2       	rcall	.+1362   	; 0x16ba <wireless_putchar>
 ******************************************************************************/
static void print_version(bool sync) {
	const char * s = (PSTR(VERSION_STRING "\n"));
    COM_putchar('V');
	char c;
	for (c = pgm_read_byte(s); c; ++s, c = pgm_read_byte(s)) {
    1168:	21 96       	adiw	r28, 0x01	; 1
    116a:	fe 01       	movw	r30, r28
    116c:	14 91       	lpm	r17, Z+
    116e:	11 23       	and	r17, r17
    1170:	a9 f7       	brne	.-22     	; 0x115c <print_version+0x18>
      COM_putchar(c);
      #if RFM==1
        if (sync) wireless_putchar(c);
      #endif
   	}
}
    1172:	df 91       	pop	r29
    1174:	cf 91       	pop	r28
    1176:	1f 91       	pop	r17
    1178:	0f 91       	pop	r16
    117a:	08 95       	ret

0000117c <COM_flush>:
 *  \brief flush output buffer
 *
 *  \note
 ******************************************************************************/
void COM_flush (void) {
	if (tx_buff_in!=tx_buff_out) {
    117c:	90 91 38 01 	lds	r25, 0x0138
    1180:	80 91 39 01 	lds	r24, 0x0139
    1184:	98 17       	cp	r25, r24
    1186:	09 f0       	breq	.+2      	; 0x118a <COM_flush+0xe>
		#if (defined COM_RS232) || (defined COM_RS485)
			RS_startSend();
    1188:	4c ce       	rjmp	.-872    	; 0xe22 <RS_startSend>
    118a:	08 95       	ret

0000118c <COM_print_debug>:
 *******************************************************************************
 *  \brief Print debug line
 *
 *  \note
 ******************************************************************************/
void COM_print_debug(int8_t valve) {
    118c:	1f 93       	push	r17
    118e:	18 2f       	mov	r17, r24
    print_s_p(PSTR("D: "));
    1190:	8c e8       	ldi	r24, 0x8C	; 140
    1192:	91 e0       	ldi	r25, 0x01	; 1
    1194:	90 df       	rcall	.-224    	; 0x10b6 <print_s_p>
    print_hexXX(RTC_GetDayOfWeek()+0xd0);
    1196:	80 91 10 01 	lds	r24, 0x0110
    119a:	80 53       	subi	r24, 0x30	; 48
    119c:	70 df       	rcall	.-288    	; 0x107e <print_hexXX>
	COM_putchar(' ');
    119e:	80 e2       	ldi	r24, 0x20	; 32
    11a0:	d4 de       	rcall	.-600    	; 0xf4a <COM_putchar>
	print_decXX(RTC_GetDay());
    11a2:	80 91 0c 01 	lds	r24, 0x010C
    11a6:	3c df       	rcall	.-392    	; 0x1020 <print_decXX>
	COM_putchar('.');
    11a8:	8e e2       	ldi	r24, 0x2E	; 46
    11aa:	cf de       	rcall	.-610    	; 0xf4a <COM_putchar>
	print_decXX(RTC_GetMonth());
    11ac:	80 91 0b 01 	lds	r24, 0x010B
    11b0:	37 df       	rcall	.-402    	; 0x1020 <print_decXX>
	COM_putchar('.');
    11b2:	8e e2       	ldi	r24, 0x2E	; 46
    11b4:	ca de       	rcall	.-620    	; 0xf4a <COM_putchar>
	print_decXX(RTC_GetYearYY());
    11b6:	80 91 0a 01 	lds	r24, 0x010A
    11ba:	32 df       	rcall	.-412    	; 0x1020 <print_decXX>
	COM_putchar(' ');
    11bc:	80 e2       	ldi	r24, 0x20	; 32
    11be:	c5 de       	rcall	.-630    	; 0xf4a <COM_putchar>
	print_decXX(RTC_GetHour());
    11c0:	80 91 0d 01 	lds	r24, 0x010D
    11c4:	2d df       	rcall	.-422    	; 0x1020 <print_decXX>
	COM_putchar(':');
    11c6:	8a e3       	ldi	r24, 0x3A	; 58
    11c8:	c0 de       	rcall	.-640    	; 0xf4a <COM_putchar>
	print_decXX(RTC_GetMinute());
    11ca:	80 91 0e 01 	lds	r24, 0x010E
    11ce:	28 df       	rcall	.-432    	; 0x1020 <print_decXX>
	COM_putchar(':');
    11d0:	8a e3       	ldi	r24, 0x3A	; 58
    11d2:	bb de       	rcall	.-650    	; 0xf4a <COM_putchar>
	print_decXX(RTC_GetSecond());
    11d4:	80 91 0f 01 	lds	r24, 0x010F
    11d8:	23 df       	rcall	.-442    	; 0x1020 <print_decXX>
	COM_putchar(' ');
    11da:	80 e2       	ldi	r24, 0x20	; 32
    11dc:	b6 de       	rcall	.-660    	; 0xf4a <COM_putchar>
    COM_putchar((CTL_mode_auto)?(CTL_test_auto()?'A':'-'):'M');
    11de:	80 91 04 01 	lds	r24, 0x0104
    11e2:	88 23       	and	r24, r24
    11e4:	11 f4       	brne	.+4      	; 0x11ea <COM_print_debug+0x5e>
    11e6:	8d e4       	ldi	r24, 0x4D	; 77
    11e8:	09 c0       	rjmp	.+18     	; 0x11fc <COM_print_debug+0x70>
    11ea:	90 91 2e 01 	lds	r25, 0x012E
    11ee:	80 91 2d 01 	lds	r24, 0x012D
    11f2:	98 17       	cp	r25, r24
    11f4:	11 f0       	breq	.+4      	; 0x11fa <COM_print_debug+0x6e>
    11f6:	8d e2       	ldi	r24, 0x2D	; 45
    11f8:	01 c0       	rjmp	.+2      	; 0x11fc <COM_print_debug+0x70>
    11fa:	81 e4       	ldi	r24, 0x41	; 65
    11fc:	a6 de       	rcall	.-692    	; 0xf4a <COM_putchar>
	print_s_p(PSTR(" V: "));
    11fe:	87 e8       	ldi	r24, 0x87	; 135
    1200:	91 e0       	ldi	r25, 0x01	; 1
    1202:	59 df       	rcall	.-334    	; 0x10b6 <print_s_p>
	print_decXX( (valve>=0) ? valve : valve_wanted);
    1204:	17 fd       	sbrc	r17, 7
    1206:	02 c0       	rjmp	.+4      	; 0x120c <COM_print_debug+0x80>
    1208:	81 2f       	mov	r24, r17
    120a:	02 c0       	rjmp	.+4      	; 0x1210 <COM_print_debug+0x84>
    120c:	80 91 2f 02 	lds	r24, 0x022F
    1210:	07 df       	rcall	.-498    	; 0x1020 <print_decXX>
	print_s_p(PSTR(" I: "));
    1212:	82 e8       	ldi	r24, 0x82	; 130
    1214:	91 e0       	ldi	r25, 0x01	; 1
    1216:	4f df       	rcall	.-354    	; 0x10b6 <print_s_p>
	print_decXXXX(temp_average);
    1218:	80 91 3a 02 	lds	r24, 0x023A
    121c:	90 91 3b 02 	lds	r25, 0x023B
    1220:	1c df       	rcall	.-456    	; 0x105a <print_decXXXX>
	print_s_p(PSTR(" S: "));
    1222:	8d e7       	ldi	r24, 0x7D	; 125
    1224:	91 e0       	ldi	r25, 0x01	; 1
    1226:	47 df       	rcall	.-370    	; 0x10b6 <print_s_p>
	if (CTL_temp_wanted_last>TEMP_MAX+1) {
    1228:	90 91 03 01 	lds	r25, 0x0103
    122c:	9e 33       	cpi	r25, 0x3E	; 62
    122e:	20 f0       	brcs	.+8      	; 0x1238 <COM_print_debug+0xac>
		print_s_p(PSTR("BOOT"));
    1230:	88 e7       	ldi	r24, 0x78	; 120
    1232:	91 e0       	ldi	r25, 0x01	; 1
    1234:	40 df       	rcall	.-384    	; 0x10b6 <print_s_p>
    1236:	05 c0       	rjmp	.+10     	; 0x1242 <COM_print_debug+0xb6>
	} else {
		print_decXXXX(calc_temp(CTL_temp_wanted_last));
    1238:	82 e3       	ldi	r24, 0x32	; 50
    123a:	98 9f       	mul	r25, r24
    123c:	c0 01       	movw	r24, r0
    123e:	11 24       	eor	r1, r1
    1240:	0c df       	rcall	.-488    	; 0x105a <print_decXXXX>
	}
	print_s_p(PSTR(" B: "));
    1242:	83 e7       	ldi	r24, 0x73	; 115
    1244:	91 e0       	ldi	r25, 0x01	; 1
    1246:	37 df       	rcall	.-402    	; 0x10b6 <print_s_p>
	print_decXXXX(bat_average);
    1248:	80 91 38 02 	lds	r24, 0x0238
    124c:	90 91 39 02 	lds	r25, 0x0239
    1250:	04 df       	rcall	.-504    	; 0x105a <print_decXXXX>
#if DEBUG_PRINT_I_SUM
	print_s_p(PSTR(" Is: "));
    1252:	8d e6       	ldi	r24, 0x6D	; 109
    1254:	91 e0       	ldi	r25, 0x01	; 1
    1256:	2f df       	rcall	.-418    	; 0x10b6 <print_s_p>
	print_hexXXXX(sumError);
    1258:	80 91 31 01 	lds	r24, 0x0131
    125c:	90 91 32 01 	lds	r25, 0x0132
    1260:	22 df       	rcall	.-444    	; 0x10a6 <print_hexXXXX>
#endif
    if (CTL_error!=0) {
    1262:	80 91 30 01 	lds	r24, 0x0130
    1266:	88 23       	and	r24, r24
    1268:	31 f0       	breq	.+12     	; 0x1276 <COM_print_debug+0xea>
		print_s_p(PSTR(" E:"));
    126a:	89 e6       	ldi	r24, 0x69	; 105
    126c:	91 e0       	ldi	r25, 0x01	; 1
    126e:	23 df       	rcall	.-442    	; 0x10b6 <print_s_p>
        print_hexXX(CTL_error);
    1270:	80 91 30 01 	lds	r24, 0x0130
    1274:	04 df       	rcall	.-504    	; 0x107e <print_hexXX>
    }                   
	if (valve<0) {
    1276:	17 ff       	sbrs	r17, 7
    1278:	03 c0       	rjmp	.+6      	; 0x1280 <COM_print_debug+0xf4>
		print_s_p(PSTR(" X"));
    127a:	86 e6       	ldi	r24, 0x66	; 102
    127c:	91 e0       	ldi	r25, 0x01	; 1
    127e:	1b df       	rcall	.-458    	; 0x10b6 <print_s_p>
	}
	if (mode_window()) {
    1280:	80 91 2f 01 	lds	r24, 0x012F
    1284:	88 23       	and	r24, r24
    1286:	19 f0       	breq	.+6      	; 0x128e <COM_print_debug+0x102>
		print_s_p(PSTR(" W"));
    1288:	83 e6       	ldi	r24, 0x63	; 99
    128a:	91 e0       	ldi	r25, 0x01	; 1
    128c:	14 df       	rcall	.-472    	; 0x10b6 <print_s_p>
	}
	COM_putchar('\n');
    128e:	8a e0       	ldi	r24, 0x0A	; 10
    1290:	5c de       	rcall	.-840    	; 0xf4a <COM_putchar>
	COM_flush();
    1292:	74 df       	rcall	.-280    	; 0x117c <COM_flush>
#if (RFM==1)
    bool sync = (valve==-2);
    if (!sync) {
    1294:	1e 3f       	cpi	r17, 0xFE	; 254
    1296:	29 f0       	breq	.+10     	; 0x12a2 <COM_print_debug+0x116>
        wireless_async=true;
    1298:	81 e0       	ldi	r24, 0x01	; 1
    129a:	80 93 e2 01 	sts	0x01E2, r24
        wireless_putchar('D');
    129e:	84 e4       	ldi	r24, 0x44	; 68
    12a0:	0c d2       	rcall	.+1048   	; 0x16ba <wireless_putchar>
    }
	wireless_putchar(
    12a2:	20 91 0e 01 	lds	r18, 0x010E
    12a6:	80 91 04 01 	lds	r24, 0x0104
    12aa:	88 23       	and	r24, r24
    12ac:	11 f4       	brne	.+4      	; 0x12b2 <COM_print_debug+0x126>
    12ae:	90 e0       	ldi	r25, 0x00	; 0
    12b0:	08 c0       	rjmp	.+16     	; 0x12c2 <COM_print_debug+0x136>
    12b2:	90 91 2e 01 	lds	r25, 0x012E
    12b6:	80 91 2d 01 	lds	r24, 0x012D
    12ba:	98 17       	cp	r25, r24
    12bc:	51 f1       	breq	.+84     	; 0x1312 <COM_print_debug+0x186>
    12be:	90 e8       	ldi	r25, 0x80	; 128
    12c0:	80 e0       	ldi	r24, 0x00	; 0
    12c2:	82 2b       	or	r24, r18
    12c4:	89 2b       	or	r24, r25
    12c6:	f9 d1       	rcall	.+1010   	; 0x16ba <wireless_putchar>
           RTC_GetMinute() 
        | (CTL_test_auto()?0x40:0)
        | ((CTL_mode_auto)?0x80:0));
	wireless_putchar(
    12c8:	90 91 0f 01 	lds	r25, 0x010F
    12cc:	80 91 2f 01 	lds	r24, 0x012F
    12d0:	81 11       	cpse	r24, r1
    12d2:	80 e4       	ldi	r24, 0x40	; 64
    12d4:	89 2b       	or	r24, r25
    12d6:	f1 d1       	rcall	.+994    	; 0x16ba <wireless_putchar>
           RTC_GetSecond()
        | ((mode_window())?0x40:0));
	wireless_putchar(CTL_error);
    12d8:	80 91 30 01 	lds	r24, 0x0130
    12dc:	ee d1       	rcall	.+988    	; 0x16ba <wireless_putchar>
	wireless_putchar(temp_average >> 8); // current temp
    12de:	80 91 3b 02 	lds	r24, 0x023B
    12e2:	eb d1       	rcall	.+982    	; 0x16ba <wireless_putchar>
	wireless_putchar(temp_average & 0xff);
    12e4:	80 91 3a 02 	lds	r24, 0x023A
    12e8:	e8 d1       	rcall	.+976    	; 0x16ba <wireless_putchar>
	wireless_putchar(bat_average >> 8); // current temp
    12ea:	80 91 39 02 	lds	r24, 0x0239
    12ee:	e5 d1       	rcall	.+970    	; 0x16ba <wireless_putchar>
	wireless_putchar(bat_average & 0xff);
    12f0:	80 91 38 02 	lds	r24, 0x0238
    12f4:	e2 d1       	rcall	.+964    	; 0x16ba <wireless_putchar>
	wireless_putchar(CTL_temp_wanted); // wanted temp
    12f6:	80 91 2d 01 	lds	r24, 0x012D
    12fa:	df d1       	rcall	.+958    	; 0x16ba <wireless_putchar>
	wireless_putchar((valve>=0) ? valve : valve_wanted); // valve pos
    12fc:	17 fd       	sbrc	r17, 7
    12fe:	02 c0       	rjmp	.+4      	; 0x1304 <COM_print_debug+0x178>
    1300:	81 2f       	mov	r24, r17
    1302:	02 c0       	rjmp	.+4      	; 0x1308 <COM_print_debug+0x17c>
    1304:	80 91 2f 02 	lds	r24, 0x022F
    1308:	d8 d1       	rcall	.+944    	; 0x16ba <wireless_putchar>
	wireless_async=false;
    130a:	10 92 e2 01 	sts	0x01E2, r1
	rfm_start_tx();
#endif
    
}
    130e:	1f 91       	pop	r17
    1310:	08 95       	ret
    1312:	90 e8       	ldi	r25, 0x80	; 128
    1314:	80 e4       	ldi	r24, 0x40	; 64
    1316:	d5 cf       	rjmp	.-86     	; 0x12c2 <COM_print_debug+0x136>

00001318 <COM_wireless_command_parse>:
/*!
 *******************************************************************************
 *  \brief parse command from wireless
 *******************************************************************************
 */ 
void COM_wireless_command_parse (uint8_t * rfm_framebuf, uint8_t rfm_framepos) {
    1318:	a0 e0       	ldi	r26, 0x00	; 0
    131a:	b0 e0       	ldi	r27, 0x00	; 0
    131c:	e2 e9       	ldi	r30, 0x92	; 146
    131e:	f9 e0       	ldi	r31, 0x09	; 9
    1320:	0c 94 b4 1d 	jmp	0x3b68	; 0x3b68 <__prologue_saves__+0x14>
    1324:	ec 01       	movw	r28, r24
    1326:	d6 2e       	mov	r13, r22
    1328:	ff 24       	eor	r15, r15
            COM_print_debug(-2);
            break;
        case 'A':
            if (rfm_framebuf[pos]<TEMP_MIN-1) { break; }
            if (rfm_framebuf[pos]>TEMP_MAX+1) { break; }
            CTL_set_temp(rfm_framebuf[pos++]);
    132a:	9a e0       	ldi	r25, 0x0A	; 10
    132c:	c9 2e       	mov	r12, r25
    132e:	bf c0       	rjmp	.+382    	; 0x14ae <COM_wireless_command_parse+0x196>
 *******************************************************************************
 */ 
void COM_wireless_command_parse (uint8_t * rfm_framebuf, uint8_t rfm_framepos) {
    uint8_t pos=0;
    while (rfm_framepos>pos) {
		uint8_t c=rfm_framebuf[pos++];
    1330:	fe 01       	movw	r30, r28
    1332:	ef 0d       	add	r30, r15
    1334:	f1 1d       	adc	r31, r1
    1336:	e0 80       	ld	r14, Z
    1338:	f3 94       	inc	r15
		wireless_putchar(c|0x80);
    133a:	8e 2d       	mov	r24, r14
    133c:	80 68       	ori	r24, 0x80	; 128
    133e:	bd d1       	rcall	.+890    	; 0x16ba <wireless_putchar>
        switch(c) {
    1340:	8e 2d       	mov	r24, r14
    1342:	90 e0       	ldi	r25, 0x00	; 0
    1344:	fc 01       	movw	r30, r24
    1346:	e1 54       	subi	r30, 0x41	; 65
    1348:	f0 40       	sbci	r31, 0x00	; 0
    134a:	e7 31       	cpi	r30, 0x17	; 23
    134c:	f1 05       	cpc	r31, r1
    134e:	08 f0       	brcs	.+2      	; 0x1352 <COM_wireless_command_parse+0x3a>
    1350:	ae c0       	rjmp	.+348    	; 0x14ae <COM_wireless_command_parse+0x196>
    1352:	e2 5d       	subi	r30, 0xD2	; 210
    1354:	ff 4f       	sbci	r31, 0xFF	; 255
    1356:	0c 94 e1 1d 	jmp	0x3bc2	; 0x3bc2 <__tablejump2__>
		case 'V':
			print_version(true);
    135a:	81 e0       	ldi	r24, 0x01	; 1
    135c:	f3 de       	rcall	.-538    	; 0x1144 <print_version>
    135e:	a7 c0       	rjmp	.+334    	; 0x14ae <COM_wireless_command_parse+0x196>
			break;
		case 'D':
			COM_print_debug(-2);
			break;
		case 'T':
		    wireless_putchar(rfm_framebuf[pos]);
    1360:	8e 01       	movw	r16, r28
    1362:	0f 0d       	add	r16, r15
    1364:	11 1d       	adc	r17, r1
    1366:	f8 01       	movw	r30, r16
    1368:	80 81       	ld	r24, Z
    136a:	a7 d1       	rcall	.+846    	; 0x16ba <wireless_putchar>
  			COM_wireless_word(watch(rfm_framebuf[pos]));
    136c:	f8 01       	movw	r30, r16
    136e:	80 81       	ld	r24, Z
    1370:	d4 dd       	rcall	.-1112   	; 0xf1a <watch>
    1372:	18 2f       	mov	r17, r24
	}
}

#if RFM==1
static void COM_wireless_word(uint16_t w) {
    wireless_putchar(w>>8);
    1374:	89 2f       	mov	r24, r25
    1376:	a1 d1       	rcall	.+834    	; 0x16ba <wireless_putchar>
    wireless_putchar(w&0xff); 
    1378:	81 2f       	mov	r24, r17
    137a:	9f d1       	rcall	.+830    	; 0x16ba <wireless_putchar>
    137c:	61 c0       	rjmp	.+194    	; 0x1440 <COM_wireless_command_parse+0x128>
  			COM_wireless_word(watch(rfm_framebuf[pos]));
			pos++;
            break;
		case 'G':
		case 'S':
			if (c=='S') {
    137e:	f3 e5       	ldi	r31, 0x53	; 83
    1380:	ef 16       	cp	r14, r31
    1382:	81 f4       	brne	.+32     	; 0x13a4 <COM_wireless_command_parse+0x8c>
  				if (rfm_framebuf[pos]<CONFIG_RAW_SIZE) {
    1384:	de 01       	movw	r26, r28
    1386:	af 0d       	add	r26, r15
    1388:	b1 1d       	adc	r27, r1
    138a:	ec 91       	ld	r30, X
    138c:	e0 33       	cpi	r30, 0x30	; 48
    138e:	50 f4       	brcc	.+20     	; 0x13a4 <COM_wireless_command_parse+0x8c>
  					config_raw[rfm_framebuf[pos]]=(uint8_t)(rfm_framebuf[pos+1]);
    1390:	f0 e0       	ldi	r31, 0x00	; 0
    1392:	ea 5a       	subi	r30, 0xAA	; 170
    1394:	fc 4f       	sbci	r31, 0xFC	; 252
    1396:	11 96       	adiw	r26, 0x01	; 1
    1398:	8c 91       	ld	r24, X
    139a:	11 97       	sbiw	r26, 0x01	; 1
    139c:	80 83       	st	Z, r24
  					eeprom_config_save(rfm_framebuf[pos]);
    139e:	8c 91       	ld	r24, X
    13a0:	0e 94 7c 16 	call	0x2cf8	; 0x2cf8 <eeprom_config_save>
  				}
			}
		    wireless_putchar(rfm_framebuf[pos]);
    13a4:	8e 01       	movw	r16, r28
    13a6:	0f 0d       	add	r16, r15
    13a8:	11 1d       	adc	r17, r1
    13aa:	f8 01       	movw	r30, r16
    13ac:	80 81       	ld	r24, Z
    13ae:	85 d1       	rcall	.+778    	; 0x16ba <wireless_putchar>
			if (rfm_framebuf[pos]==0xff) {
    13b0:	f8 01       	movw	r30, r16
    13b2:	00 81       	ld	r16, Z
    13b4:	0f 3f       	cpi	r16, 0xFF	; 255
    13b6:	11 f4       	brne	.+4      	; 0x13bc <COM_wireless_command_parse+0xa4>
			     wireless_putchar(EE_LAYOUT);
    13b8:	81 e1       	ldi	r24, 0x11	; 17
    13ba:	05 c0       	rjmp	.+10     	; 0x13c6 <COM_wireless_command_parse+0xae>
            } else {
			     wireless_putchar(config_raw[rfm_framebuf[pos]]);
    13bc:	e0 2f       	mov	r30, r16
    13be:	f0 e0       	ldi	r31, 0x00	; 0
    13c0:	ea 5a       	subi	r30, 0xAA	; 170
    13c2:	fc 4f       	sbci	r31, 0xFC	; 252
    13c4:	80 81       	ld	r24, Z
    13c6:	79 d1       	rcall	.+754    	; 0x16ba <wireless_putchar>
			}
			if (c=='S') pos++;
    13c8:	f3 e5       	ldi	r31, 0x53	; 83
    13ca:	ef 16       	cp	r14, r31
    13cc:	c9 f5       	brne	.+114    	; 0x1440 <COM_wireless_command_parse+0x128>
    13ce:	f3 94       	inc	r15
    13d0:	37 c0       	rjmp	.+110    	; 0x1440 <COM_wireless_command_parse+0x128>
			pos++;
			break;
		case 'R':
		case 'W':
			if (c=='W') {
    13d2:	87 e5       	ldi	r24, 0x57	; 87
    13d4:	e8 16       	cp	r14, r24
    13d6:	c1 f4       	brne	.+48     	; 0x1408 <COM_wireless_command_parse+0xf0>
  				RTC_DowTimerSet(
    13d8:	fe 01       	movw	r30, r28
    13da:	ef 0d       	add	r30, r15
    13dc:	f1 1d       	adc	r31, r1
    13de:	60 81       	ld	r22, Z
    13e0:	21 81       	ldd	r18, Z+1	; 0x01
    13e2:	42 2f       	mov	r20, r18
    13e4:	50 e0       	ldi	r21, 0x00	; 0
    13e6:	4f 70       	andi	r20, 0x0F	; 15
    13e8:	50 70       	andi	r21, 0x00	; 0
    13ea:	54 2f       	mov	r21, r20
    13ec:	44 27       	eor	r20, r20
    13ee:	82 81       	ldd	r24, Z+2	; 0x02
    13f0:	48 0f       	add	r20, r24
    13f2:	51 1d       	adc	r21, r1
    13f4:	22 95       	swap	r18
    13f6:	2f 70       	andi	r18, 0x0F	; 15
    13f8:	86 2f       	mov	r24, r22
    13fa:	82 95       	swap	r24
    13fc:	8f 70       	andi	r24, 0x0F	; 15
    13fe:	6f 70       	andi	r22, 0x0F	; 15
    1400:	0e 94 2c 12 	call	0x2458	; 0x2458 <RTC_DowTimerSet>
                    rfm_framebuf[pos]>>4, 
                    rfm_framebuf[pos]&0xf, 
                    (((uint16_t) (rfm_framebuf[pos+1])&0xf)<<8)+(uint16_t)(rfm_framebuf[pos+2]), 
                    (rfm_framebuf[pos+1])>>4);
				CTL_update_temp_auto();
    1404:	10 92 2e 01 	sts	0x012E, r1
			}
		    wireless_putchar(rfm_framebuf[pos]);
    1408:	8e 01       	movw	r16, r28
    140a:	0f 0d       	add	r16, r15
    140c:	11 1d       	adc	r17, r1
    140e:	f8 01       	movw	r30, r16
    1410:	80 81       	ld	r24, Z
    1412:	53 d1       	rcall	.+678    	; 0x16ba <wireless_putchar>
			COM_wireless_word(eeprom_timers_read_raw(
    1414:	f8 01       	movw	r30, r16
    1416:	90 81       	ld	r25, Z
    1418:	89 2f       	mov	r24, r25
    141a:	82 95       	swap	r24
    141c:	8f 70       	andi	r24, 0x0F	; 15
    141e:	88 0f       	add	r24, r24
    1420:	88 0f       	add	r24, r24
    1422:	88 0f       	add	r24, r24
    1424:	9f 70       	andi	r25, 0x0F	; 15
    1426:	89 0f       	add	r24, r25
    1428:	0e 94 d6 16 	call	0x2dac	; 0x2dac <eeprom_timers_read_raw>
    142c:	18 2f       	mov	r17, r24
	}
}

#if RFM==1
static void COM_wireless_word(uint16_t w) {
    wireless_putchar(w>>8);
    142e:	89 2f       	mov	r24, r25
    1430:	44 d1       	rcall	.+648    	; 0x16ba <wireless_putchar>
    wireless_putchar(w&0xff); 
    1432:	81 2f       	mov	r24, r17
    1434:	42 d1       	rcall	.+644    	; 0x16ba <wireless_putchar>
				CTL_update_temp_auto();
			}
		    wireless_putchar(rfm_framebuf[pos]);
			COM_wireless_word(eeprom_timers_read_raw(
                timers_get_raw_index((rfm_framebuf[pos]>>4),(rfm_framebuf[pos]&0xf))));
			if (c=='W') pos+=2;
    1436:	f7 e5       	ldi	r31, 0x57	; 87
    1438:	ef 16       	cp	r14, r31
    143a:	11 f4       	brne	.+4      	; 0x1440 <COM_wireless_command_parse+0x128>
    143c:	82 e0       	ldi	r24, 0x02	; 2
    143e:	f8 0e       	add	r15, r24
			pos++;
    1440:	f3 94       	inc	r15
    1442:	35 c0       	rjmp	.+106    	; 0x14ae <COM_wireless_command_parse+0x196>
            break;
		case 'B':
			{
  				if ((rfm_framebuf[pos]==0x13) && (rfm_framebuf[pos+1]==0x24)) {
    1444:	fe 01       	movw	r30, r28
    1446:	ef 0d       	add	r30, r15
    1448:	f1 1d       	adc	r31, r1
    144a:	80 81       	ld	r24, Z
    144c:	83 31       	cpi	r24, 0x13	; 19
    144e:	81 f4       	brne	.+32     	; 0x1470 <COM_wireless_command_parse+0x158>
    1450:	81 81       	ldd	r24, Z+1	; 0x01
    1452:	84 32       	cpi	r24, 0x24	; 36
    1454:	69 f4       	brne	.+26     	; 0x1470 <COM_wireless_command_parse+0x158>
                      cli();
    1456:	f8 94       	cli
                      wdt_enable(WDTO_15MS); //wd on,15ms
    1458:	28 e0       	ldi	r18, 0x08	; 8
    145a:	88 e1       	ldi	r24, 0x18	; 24
    145c:	90 e0       	ldi	r25, 0x00	; 0
    145e:	0f b6       	in	r0, 0x3f	; 63
    1460:	f8 94       	cli
    1462:	a8 95       	wdr
    1464:	80 93 60 00 	sts	0x0060, r24
    1468:	0f be       	out	0x3f, r0	; 63
    146a:	20 93 60 00 	sts	0x0060, r18
    146e:	ff cf       	rjmp	.-2      	; 0x146e <COM_wireless_command_parse+0x156>
                      while(1); //loop till reset
    			}
    			pos+=2;
    1470:	e2 e0       	ldi	r30, 0x02	; 2
    1472:	fe 0e       	add	r15, r30
    1474:	1c c0       	rjmp	.+56     	; 0x14ae <COM_wireless_command_parse+0x196>
			}
			break;
        case 'M':
            CTL_change_mode(rfm_framebuf[pos++]==1);
    1476:	90 e0       	ldi	r25, 0x00	; 0
    1478:	fe 01       	movw	r30, r28
    147a:	ef 0d       	add	r30, r15
    147c:	f1 1d       	adc	r31, r1
    147e:	80 81       	ld	r24, Z
    1480:	81 30       	cpi	r24, 0x01	; 1
    1482:	09 f4       	brne	.+2      	; 0x1486 <COM_wireless_command_parse+0x16e>
    1484:	91 e0       	ldi	r25, 0x01	; 1
    1486:	f3 94       	inc	r15
    1488:	89 2f       	mov	r24, r25
    148a:	a1 da       	rcall	.-2750   	; 0x9ce <CTL_change_mode>
    148c:	0e c0       	rjmp	.+28     	; 0x14aa <COM_wireless_command_parse+0x192>
            COM_print_debug(-2);
            break;
        case 'A':
            if (rfm_framebuf[pos]<TEMP_MIN-1) { break; }
    148e:	fe 01       	movw	r30, r28
    1490:	ef 0d       	add	r30, r15
    1492:	f1 1d       	adc	r31, r1
    1494:	80 81       	ld	r24, Z
    1496:	89 30       	cpi	r24, 0x09	; 9
    1498:	50 f0       	brcs	.+20     	; 0x14ae <COM_wireless_command_parse+0x196>
            if (rfm_framebuf[pos]>TEMP_MAX+1) { break; }
    149a:	8e 33       	cpi	r24, 0x3E	; 62
    149c:	40 f4       	brcc	.+16     	; 0x14ae <COM_wireless_command_parse+0x196>
            CTL_set_temp(rfm_framebuf[pos++]);
    149e:	c0 92 05 01 	sts	0x0105, r12
    14a2:	80 81       	ld	r24, Z
    14a4:	80 93 2d 01 	sts	0x012D, r24
    14a8:	f3 94       	inc	r15
            COM_print_debug(-2);
    14aa:	8e ef       	ldi	r24, 0xFE	; 254
    14ac:	6f de       	rcall	.-802    	; 0x118c <COM_print_debug>
 *  \brief parse command from wireless
 *******************************************************************************
 */ 
void COM_wireless_command_parse (uint8_t * rfm_framebuf, uint8_t rfm_framepos) {
    uint8_t pos=0;
    while (rfm_framepos>pos) {
    14ae:	fd 14       	cp	r15, r13
    14b0:	08 f4       	brcc	.+2      	; 0x14b4 <COM_wireless_command_parse+0x19c>
    14b2:	3e cf       	rjmp	.-388    	; 0x1330 <COM_wireless_command_parse+0x18>
            break;
		default:
			break;
		}
	}
}
    14b4:	cd b7       	in	r28, 0x3d	; 61
    14b6:	de b7       	in	r29, 0x3e	; 62
    14b8:	e8 e0       	ldi	r30, 0x08	; 8
    14ba:	0c 94 d0 1d 	jmp	0x3ba0	; 0x3ba0 <__epilogue_restores__+0x14>

000014be <COM_commad_parse>:
 *  \note   Hhhmmss\n - set, hour hh, minute mm, second ss; HEX values!!!
 *  \note   Axx\n - set wanted temperature [unit 0.5C]
 *  \note   Mxx\n - set mode and close window (00=manu 01=auto fd=nochange/close window only)
 *	
 ******************************************************************************/
void COM_commad_parse (void) {
    14be:	1f 93       	push	r17
    14c0:	e2 c0       	rjmp	.+452    	; 0x1686 <COM_commad_parse+0x1c8>
	char c;
	while (COM_requests) {
        switch(c=COM_getchar()) {
    14c2:	92 dd       	rcall	.-1244   	; 0xfe8 <COM_getchar>
    14c4:	18 2f       	mov	r17, r24
    14c6:	90 e0       	ldi	r25, 0x00	; 0
    14c8:	fc 01       	movw	r30, r24
    14ca:	e1 54       	subi	r30, 0x41	; 65
    14cc:	f0 40       	sbci	r31, 0x00	; 0
    14ce:	e9 31       	cpi	r30, 0x19	; 25
    14d0:	f1 05       	cpc	r31, r1
    14d2:	08 f0       	brcs	.+2      	; 0x14d6 <COM_commad_parse+0x18>
    14d4:	d7 c0       	rjmp	.+430    	; 0x1684 <COM_commad_parse+0x1c6>
    14d6:	eb 5b       	subi	r30, 0xBB	; 187
    14d8:	ff 4f       	sbci	r31, 0xFF	; 255
    14da:	0c 94 e1 1d 	jmp	0x3bc2	; 0x3bc2 <__tablejump2__>
		case 'V':
			if (COM_getchar()=='\n') print_version(false);
    14de:	84 dd       	rcall	.-1272   	; 0xfe8 <COM_getchar>
    14e0:	8a 30       	cpi	r24, 0x0A	; 10
    14e2:	09 f0       	breq	.+2      	; 0x14e6 <COM_commad_parse+0x28>
    14e4:	cf c0       	rjmp	.+414    	; 0x1684 <COM_commad_parse+0x1c6>
    14e6:	80 e0       	ldi	r24, 0x00	; 0
    14e8:	2d de       	rcall	.-934    	; 0x1144 <print_version>
    14ea:	cc c0       	rjmp	.+408    	; 0x1684 <COM_commad_parse+0x1c6>
			c='\0';
			break;
		case 'D':
			if (COM_getchar()=='\n') COM_print_debug(-1);
    14ec:	7d dd       	rcall	.-1286   	; 0xfe8 <COM_getchar>
    14ee:	8a 30       	cpi	r24, 0x0A	; 10
    14f0:	09 f0       	breq	.+2      	; 0x14f4 <COM_commad_parse+0x36>
    14f2:	c8 c0       	rjmp	.+400    	; 0x1684 <COM_commad_parse+0x1c6>
    14f4:	7c c0       	rjmp	.+248    	; 0x15ee <COM_commad_parse+0x130>
			c='\0';
			break;
		case 'T':
			{
				if (COM_hex_parse(1*2)!='\0') { break; }
    14f6:	82 e0       	ldi	r24, 0x02	; 2
    14f8:	ed dd       	rcall	.-1062   	; 0x10d4 <COM_hex_parse>
    14fa:	88 23       	and	r24, r24
    14fc:	09 f0       	breq	.+2      	; 0x1500 <COM_commad_parse+0x42>
    14fe:	c0 c0       	rjmp	.+384    	; 0x1680 <COM_commad_parse+0x1c2>
                print_idx(c,com_hex[0]);
    1500:	84 e5       	ldi	r24, 0x54	; 84
    1502:	60 91 db 01 	lds	r22, 0x01DB
    1506:	11 de       	rcall	.-990    	; 0x112a <print_idx>
  				print_hexXXXX(watch(com_hex[0]));
    1508:	80 91 db 01 	lds	r24, 0x01DB
    150c:	06 dd       	rcall	.-1524   	; 0xf1a <watch>
    150e:	5f c0       	rjmp	.+190    	; 0x15ce <COM_commad_parse+0x110>
			}
			break;
		case 'G':
		case 'S':
			if (c=='G') {
    1510:	17 34       	cpi	r17, 0x47	; 71
    1512:	31 f4       	brne	.+12     	; 0x1520 <COM_commad_parse+0x62>
				if (COM_hex_parse(1*2)!='\0') { break; }
    1514:	82 e0       	ldi	r24, 0x02	; 2
    1516:	de dd       	rcall	.-1092   	; 0x10d4 <COM_hex_parse>
    1518:	88 23       	and	r24, r24
    151a:	09 f0       	breq	.+2      	; 0x151e <COM_commad_parse+0x60>
    151c:	b1 c0       	rjmp	.+354    	; 0x1680 <COM_commad_parse+0x1c2>
    151e:	13 c0       	rjmp	.+38     	; 0x1546 <COM_commad_parse+0x88>
			} else {
				if (COM_hex_parse(2*2)!='\0') { break; }
    1520:	84 e0       	ldi	r24, 0x04	; 4
    1522:	d8 dd       	rcall	.-1104   	; 0x10d4 <COM_hex_parse>
    1524:	88 23       	and	r24, r24
    1526:	09 f0       	breq	.+2      	; 0x152a <COM_commad_parse+0x6c>
    1528:	ab c0       	rjmp	.+342    	; 0x1680 <COM_commad_parse+0x1c2>
  				if (com_hex[0]<CONFIG_RAW_SIZE) {
    152a:	90 91 db 01 	lds	r25, 0x01DB
    152e:	90 33       	cpi	r25, 0x30	; 48
    1530:	50 f4       	brcc	.+20     	; 0x1546 <COM_commad_parse+0x88>
  					config_raw[com_hex[0]]=(uint8_t)(com_hex[1]);
    1532:	e9 2f       	mov	r30, r25
    1534:	f0 e0       	ldi	r31, 0x00	; 0
    1536:	ea 5a       	subi	r30, 0xAA	; 170
    1538:	fc 4f       	sbci	r31, 0xFC	; 252
    153a:	80 91 dc 01 	lds	r24, 0x01DC
    153e:	80 83       	st	Z, r24
  					eeprom_config_save(com_hex[0]);
    1540:	89 2f       	mov	r24, r25
    1542:	0e 94 7c 16 	call	0x2cf8	; 0x2cf8 <eeprom_config_save>
  				}
			}
            print_idx(c,com_hex[0]);
    1546:	81 2f       	mov	r24, r17
    1548:	60 91 db 01 	lds	r22, 0x01DB
    154c:	ee dd       	rcall	.-1060   	; 0x112a <print_idx>
			if (com_hex[0]==0xff) {
    154e:	e0 91 db 01 	lds	r30, 0x01DB
    1552:	ef 3f       	cpi	r30, 0xFF	; 255
    1554:	11 f4       	brne	.+4      	; 0x155a <COM_commad_parse+0x9c>
			     print_hexXX(EE_LAYOUT);
    1556:	81 e1       	ldi	r24, 0x11	; 17
    1558:	04 c0       	rjmp	.+8      	; 0x1562 <COM_commad_parse+0xa4>
            } else {
			     print_hexXX(config_raw[com_hex[0]]);
    155a:	f0 e0       	ldi	r31, 0x00	; 0
    155c:	ea 5a       	subi	r30, 0xAA	; 170
    155e:	fc 4f       	sbci	r31, 0xFC	; 252
    1560:	80 81       	ld	r24, Z
    1562:	8d dd       	rcall	.-1254   	; 0x107e <print_hexXX>
    1564:	8d c0       	rjmp	.+282    	; 0x1680 <COM_commad_parse+0x1c2>
			}
			break;
		case 'R':
		case 'W':
			if (c=='R') {
    1566:	12 35       	cpi	r17, 0x52	; 82
    1568:	31 f4       	brne	.+12     	; 0x1576 <COM_commad_parse+0xb8>
				if (COM_hex_parse(1*2)!='\0') { break; }
    156a:	82 e0       	ldi	r24, 0x02	; 2
    156c:	b3 dd       	rcall	.-1178   	; 0x10d4 <COM_hex_parse>
    156e:	88 23       	and	r24, r24
    1570:	09 f0       	breq	.+2      	; 0x1574 <COM_commad_parse+0xb6>
    1572:	86 c0       	rjmp	.+268    	; 0x1680 <COM_commad_parse+0x1c2>
    1574:	1c c0       	rjmp	.+56     	; 0x15ae <COM_commad_parse+0xf0>
			} else {
				if (COM_hex_parse(3*2)!='\0') { break; }
    1576:	86 e0       	ldi	r24, 0x06	; 6
    1578:	ad dd       	rcall	.-1190   	; 0x10d4 <COM_hex_parse>
    157a:	88 23       	and	r24, r24
    157c:	09 f0       	breq	.+2      	; 0x1580 <COM_commad_parse+0xc2>
    157e:	80 c0       	rjmp	.+256    	; 0x1680 <COM_commad_parse+0x1c2>
  				RTC_DowTimerSet(
    1580:	60 91 db 01 	lds	r22, 0x01DB
    1584:	20 91 dc 01 	lds	r18, 0x01DC
    1588:	42 2f       	mov	r20, r18
    158a:	50 e0       	ldi	r21, 0x00	; 0
    158c:	4f 70       	andi	r20, 0x0F	; 15
    158e:	50 70       	andi	r21, 0x00	; 0
    1590:	54 2f       	mov	r21, r20
    1592:	44 27       	eor	r20, r20
    1594:	80 91 dd 01 	lds	r24, 0x01DD
    1598:	48 0f       	add	r20, r24
    159a:	51 1d       	adc	r21, r1
    159c:	22 95       	swap	r18
    159e:	2f 70       	andi	r18, 0x0F	; 15
    15a0:	86 2f       	mov	r24, r22
    15a2:	82 95       	swap	r24
    15a4:	8f 70       	andi	r24, 0x0F	; 15
    15a6:	6f 70       	andi	r22, 0x0F	; 15
    15a8:	57 d7       	rcall	.+3758   	; 0x2458 <RTC_DowTimerSet>
                    com_hex[0]>>4, 
                    com_hex[0]&0xf, 
                    (((uint16_t) (com_hex[1])&0xf)<<8)+(uint16_t)(com_hex[2]), 
                    (com_hex[1])>>4);
				CTL_update_temp_auto();
    15aa:	10 92 2e 01 	sts	0x012E, r1
			}
            print_idx(c,com_hex[0]);
    15ae:	81 2f       	mov	r24, r17
    15b0:	60 91 db 01 	lds	r22, 0x01DB
    15b4:	ba dd       	rcall	.-1164   	; 0x112a <print_idx>
			print_hexXXXX(eeprom_timers_read_raw(
    15b6:	90 91 db 01 	lds	r25, 0x01DB
    15ba:	89 2f       	mov	r24, r25
    15bc:	82 95       	swap	r24
    15be:	8f 70       	andi	r24, 0x0F	; 15
    15c0:	88 0f       	add	r24, r24
    15c2:	88 0f       	add	r24, r24
    15c4:	88 0f       	add	r24, r24
    15c6:	9f 70       	andi	r25, 0x0F	; 15
    15c8:	89 0f       	add	r24, r25
    15ca:	0e 94 d6 16 	call	0x2dac	; 0x2dac <eeprom_timers_read_raw>
    15ce:	6b dd       	rcall	.-1322   	; 0x10a6 <print_hexXXXX>
    15d0:	57 c0       	rjmp	.+174    	; 0x1680 <COM_commad_parse+0x1c2>
                timers_get_raw_index((com_hex[0]>>4),(com_hex[0]&0xf))));
			break;
		case 'Y':
			if (COM_hex_parse(3*2)!='\0') { break; }
    15d2:	86 e0       	ldi	r24, 0x06	; 6
    15d4:	7f dd       	rcall	.-1282   	; 0x10d4 <COM_hex_parse>
    15d6:	88 23       	and	r24, r24
    15d8:	09 f0       	breq	.+2      	; 0x15dc <COM_commad_parse+0x11e>
    15da:	52 c0       	rjmp	.+164    	; 0x1680 <COM_commad_parse+0x1c2>
			RTC_SetDate(com_hex[2],com_hex[1],com_hex[0]);
    15dc:	80 91 db 01 	lds	r24, 0x01DB
    15e0:	e7 d6       	rcall	.+3534   	; 0x23b0 <RTC_SetYear>
    15e2:	80 91 dc 01 	lds	r24, 0x01DC
    15e6:	e7 d6       	rcall	.+3534   	; 0x23b6 <RTC_SetMonth>
    15e8:	80 91 dd 01 	lds	r24, 0x01DD
    15ec:	ec d6       	rcall	.+3544   	; 0x23c6 <RTC_SetDay>
			COM_print_debug(-1);
    15ee:	8f ef       	ldi	r24, 0xFF	; 255
    15f0:	cd dd       	rcall	.-1126   	; 0x118c <COM_print_debug>
    15f2:	48 c0       	rjmp	.+144    	; 0x1684 <COM_commad_parse+0x1c6>
			c='\0';
			break;
		case 'H':
			if (COM_hex_parse(3*2)!='\0') { break; }
    15f4:	86 e0       	ldi	r24, 0x06	; 6
    15f6:	6e dd       	rcall	.-1316   	; 0x10d4 <COM_hex_parse>
    15f8:	88 23       	and	r24, r24
    15fa:	09 f0       	breq	.+2      	; 0x15fe <COM_commad_parse+0x140>
    15fc:	41 c0       	rjmp	.+130    	; 0x1680 <COM_commad_parse+0x1c2>
			RTC_SetHour(com_hex[0]);
    15fe:	80 91 db 01 	lds	r24, 0x01DB
    1602:	62 d4       	rcall	.+2244   	; 0x1ec8 <RTC_SetHour>
			RTC_SetMinute(com_hex[1]);
    1604:	80 91 dc 01 	lds	r24, 0x01DC
    1608:	66 d4       	rcall	.+2252   	; 0x1ed6 <RTC_SetMinute>
			RTC_SetSecond(com_hex[2]);
    160a:	80 91 dd 01 	lds	r24, 0x01DD
    160e:	6a d4       	rcall	.+2260   	; 0x1ee4 <RTC_SetSecond>
    1610:	ee cf       	rjmp	.-36     	; 0x15ee <COM_commad_parse+0x130>
			COM_print_debug(-1);
			c='\0';
			break;
		case 'B':
			{
				if (COM_hex_parse(2*2)!='\0') { break; }
    1612:	84 e0       	ldi	r24, 0x04	; 4
    1614:	5f dd       	rcall	.-1346   	; 0x10d4 <COM_hex_parse>
    1616:	88 23       	and	r24, r24
    1618:	99 f5       	brne	.+102    	; 0x1680 <COM_commad_parse+0x1c2>
  				if ((com_hex[0]==0x13) && (com_hex[1]==0x24)) {
    161a:	80 91 db 01 	lds	r24, 0x01DB
    161e:	83 31       	cpi	r24, 0x13	; 19
    1620:	79 f5       	brne	.+94     	; 0x1680 <COM_commad_parse+0x1c2>
    1622:	80 91 dc 01 	lds	r24, 0x01DC
    1626:	84 32       	cpi	r24, 0x24	; 36
    1628:	59 f5       	brne	.+86     	; 0x1680 <COM_commad_parse+0x1c2>
                      cli();
    162a:	f8 94       	cli
                      wdt_enable(WDTO_15MS); //wd on,15ms
    162c:	28 e0       	ldi	r18, 0x08	; 8
    162e:	88 e1       	ldi	r24, 0x18	; 24
    1630:	90 e0       	ldi	r25, 0x00	; 0
    1632:	0f b6       	in	r0, 0x3f	; 63
    1634:	f8 94       	cli
    1636:	a8 95       	wdr
    1638:	80 93 60 00 	sts	0x0060, r24
    163c:	0f be       	out	0x3f, r0	; 63
    163e:	20 93 60 00 	sts	0x0060, r18
    1642:	ff cf       	rjmp	.-2      	; 0x1642 <COM_commad_parse+0x184>
                      while(1); //loop till reset
    			}
			}
			break;
        case 'M':
            if (COM_hex_parse(1*2)!='\0') { break; }
    1644:	82 e0       	ldi	r24, 0x02	; 2
    1646:	46 dd       	rcall	.-1396   	; 0x10d4 <COM_hex_parse>
    1648:	88 23       	and	r24, r24
    164a:	d1 f4       	brne	.+52     	; 0x1680 <COM_commad_parse+0x1c2>
            CTL_change_mode(com_hex[0]==1);
    164c:	90 e0       	ldi	r25, 0x00	; 0
    164e:	80 91 db 01 	lds	r24, 0x01DB
    1652:	81 30       	cpi	r24, 0x01	; 1
    1654:	09 f4       	brne	.+2      	; 0x1658 <COM_commad_parse+0x19a>
    1656:	91 e0       	ldi	r25, 0x01	; 1
    1658:	89 2f       	mov	r24, r25
    165a:	b9 d9       	rcall	.-3214   	; 0x9ce <CTL_change_mode>
    165c:	0f c0       	rjmp	.+30     	; 0x167c <COM_commad_parse+0x1be>
            COM_print_debug(-1);
            break;
        case 'A':
            if (COM_hex_parse(1*2)!='\0') { break; }
    165e:	82 e0       	ldi	r24, 0x02	; 2
    1660:	39 dd       	rcall	.-1422   	; 0x10d4 <COM_hex_parse>
    1662:	88 23       	and	r24, r24
    1664:	69 f4       	brne	.+26     	; 0x1680 <COM_commad_parse+0x1c2>
            if (com_hex[0]<TEMP_MIN-1) { break; }
    1666:	90 91 db 01 	lds	r25, 0x01DB
    166a:	99 30       	cpi	r25, 0x09	; 9
    166c:	48 f0       	brcs	.+18     	; 0x1680 <COM_commad_parse+0x1c2>
            if (com_hex[0]>TEMP_MAX+1) { break; }
    166e:	9e 33       	cpi	r25, 0x3E	; 62
    1670:	38 f4       	brcc	.+14     	; 0x1680 <COM_commad_parse+0x1c2>
            CTL_set_temp(com_hex[0]);
    1672:	8a e0       	ldi	r24, 0x0A	; 10
    1674:	80 93 05 01 	sts	0x0105, r24
    1678:	90 93 2d 01 	sts	0x012D, r25
            COM_print_debug(-1);
    167c:	8f ef       	ldi	r24, 0xFF	; 255
    167e:	86 dd       	rcall	.-1268   	; 0x118c <COM_print_debug>
		//case '\0':
		default:
			c='\0';
			break;
		}
		if (c!='\0') COM_putchar('\n');
    1680:	8a e0       	ldi	r24, 0x0A	; 10
    1682:	63 dc       	rcall	.-1850   	; 0xf4a <COM_putchar>
		COM_flush();
    1684:	7b dd       	rcall	.-1290   	; 0x117c <COM_flush>
 *  \note   Mxx\n - set mode and close window (00=manu 01=auto fd=nochange/close window only)
 *	
 ******************************************************************************/
void COM_commad_parse (void) {
	char c;
	while (COM_requests) {
    1686:	80 91 da 01 	lds	r24, 0x01DA
    168a:	88 23       	and	r24, r24
    168c:	09 f0       	breq	.+2      	; 0x1690 <COM_commad_parse+0x1d2>
    168e:	19 cf       	rjmp	.-462    	; 0x14c2 <COM_commad_parse+0x4>
		COM_flush();
		#if (RFM==1)
		  rfm_start_tx();
		#endif
	}
}
    1690:	1f 91       	pop	r17
    1692:	08 95       	ret

00001694 <COM_init>:
 *  \brief init communication
 *
 *  \note
 ******************************************************************************/
void COM_init(void) {
	print_version(false);
    1694:	80 e0       	ldi	r24, 0x00	; 0
    1696:	56 dd       	rcall	.-1364   	; 0x1144 <print_version>
#if (THERMOTRONIC!=1)
	RS_Init();
    1698:	b3 db       	rcall	.-2202   	; 0xe00 <RS_Init>
#endif
	COM_flush();
}
    169a:	70 cd       	rjmp	.-1312   	; 0x117c <COM_flush>

0000169c <left_roll>:
    169c:	af 81       	ldd	r26, Y+7	; 0x07
    169e:	aa 0f       	add	r26, r26
    16a0:	bf b7       	in	r27, 0x3f	; 63
    16a2:	a7 e0       	ldi	r26, 0x07	; 7

000016a4 <roll_loop>:
    16a4:	08 80       	ld	r0, Y
    16a6:	bf bf       	out	0x3f, r27	; 63
    16a8:	00 1c       	adc	r0, r0
    16aa:	bf b7       	in	r27, 0x3f	; 63
    16ac:	00 82       	st	Z, r0
    16ae:	21 96       	adiw	r28, 0x01	; 1
    16b0:	31 96       	adiw	r30, 0x01	; 1
    16b2:	a1 50       	subi	r26, 0x01	; 1
    16b4:	b8 f7       	brcc	.-18     	; 0x16a4 <roll_loop>
    16b6:	28 97       	sbiw	r28, 0x08	; 8
    16b8:	08 95       	ret

000016ba <wireless_putchar>:
bool wireless_async = false;
/*!
 *******************************************************************************
 *  wireless put one byte into buffer
 ******************************************************************************/
void wireless_putchar(uint8_t b) {
    16ba:	98 2f       	mov	r25, r24
  if (! wireless_async) {
    16bc:	80 91 e2 01 	lds	r24, 0x01E2
    16c0:	88 23       	and	r24, r24
    16c2:	69 f4       	brne	.+26     	; 0x16de <wireless_putchar+0x24>
    // synchronous buffer
    if (rfm_framesize<RFM_FRAME_MAX-4-2) {
    16c4:	80 91 09 01 	lds	r24, 0x0109
    16c8:	8a 34       	cpi	r24, 0x4A	; 74
    16ca:	a8 f4       	brcc	.+42     	; 0x16f6 <wireless_putchar+0x3c>
        rfm_framebuf[rfm_framesize++] = b;
    16cc:	e8 2f       	mov	r30, r24
    16ce:	f0 e0       	ldi	r31, 0x00	; 0
    16d0:	ef 53       	subi	r30, 0x3F	; 63
    16d2:	fd 4f       	sbci	r31, 0xFD	; 253
    16d4:	90 83       	st	Z, r25
    16d6:	8f 5f       	subi	r24, 0xFF	; 255
    16d8:	80 93 09 01 	sts	0x0109, r24
    16dc:	08 95       	ret
#else
void wireless_putchar(uint8_t b) {
  {
#endif
    // asynchronous buffer
    if (wireless_buf_ptr<WIRELESS_BUF_MAX) {
    16de:	80 91 de 01 	lds	r24, 0x01DE
    16e2:	86 34       	cpi	r24, 0x46	; 70
    16e4:	40 f4       	brcc	.+16     	; 0x16f6 <wireless_putchar+0x3c>
        wireless_framebuf[wireless_buf_ptr++] = b;
    16e6:	e8 2f       	mov	r30, r24
    16e8:	f0 e0       	ldi	r31, 0x00	; 0
    16ea:	ed 51       	subi	r30, 0x1D	; 29
    16ec:	fe 4f       	sbci	r31, 0xFE	; 254
    16ee:	90 83       	st	Z, r25
    16f0:	8f 5f       	subi	r24, 0xFF	; 255
    16f2:	80 93 de 01 	sts	0x01DE, r24
    16f6:	08 95       	ret

000016f8 <wirelesTimeSyncCheck>:
 *******************************************************************************
 *  wireless Check time synchronization
 ******************************************************************************/
#if ! defined(MASTER_CONFIG_H)
void wirelesTimeSyncCheck(void) {
    time_sync_tmo--;
    16f8:	80 91 e0 01 	lds	r24, 0x01E0
    16fc:	81 50       	subi	r24, 0x01	; 1
    16fe:	80 93 e0 01 	sts	0x01E0, r24
    if (time_sync_tmo<=0) {
    1702:	18 16       	cp	r1, r24
    1704:	7c f1       	brlt	.+94     	; 0x1764 <wirelesTimeSyncCheck+0x6c>
        if ((time_sync_tmo==0) || (time_sync_tmo<-30)) {
    1706:	88 23       	and	r24, r24
    1708:	11 f0       	breq	.+4      	; 0x170e <wirelesTimeSyncCheck+0x16>
    170a:	82 3e       	cpi	r24, 0xE2	; 226
    170c:	e4 f4       	brge	.+56     	; 0x1746 <wirelesTimeSyncCheck+0x4e>
                time_sync_tmo=0;
    170e:	10 92 e0 01 	sts	0x01E0, r1
        		RFM_INT_DIS();
    1712:	80 91 6b 00 	lds	r24, 0x006B
    1716:	8f 7b       	andi	r24, 0xBF	; 191
    1718:	80 93 6b 00 	sts	0x006B, r24
			    RFM_SPI_16(RFM_FIFO_IT(8) |               RFM_FIFO_DR);
    171c:	81 e8       	ldi	r24, 0x81	; 129
    171e:	9a ec       	ldi	r25, 0xCA	; 202
    1720:	98 d2       	rcall	.+1328   	; 0x1c52 <rfm_spi16>
                RFM_SPI_16(RFM_FIFO_IT(8) | RFM_FIFO_FF | RFM_FIFO_DR);
    1722:	83 e8       	ldi	r24, 0x83	; 131
    1724:	9a ec       	ldi	r25, 0xCA	; 202
    1726:	95 d2       	rcall	.+1322   	; 0x1c52 <rfm_spi16>
                RFM_RX_ON();    //re-enable RX
    1728:	89 ed       	ldi	r24, 0xD9	; 217
    172a:	92 e8       	ldi	r25, 0x82	; 130
    172c:	92 d2       	rcall	.+1316   	; 0x1c52 <rfm_spi16>
				rfm_framepos=0;
    172e:	10 92 29 02 	sts	0x0229, r1
				rfm_mode = rfmmode_rx;
    1732:	84 e0       	ldi	r24, 0x04	; 4
    1734:	80 93 2a 02 	sts	0x022A, r24
			    RFM_INT_EN(); // enable RFM interrupt
    1738:	80 91 6b 00 	lds	r24, 0x006B
    173c:	80 64       	ori	r24, 0x40	; 64
    173e:	80 93 6b 00 	sts	0x006B, r24
    1742:	0c 94 da 02 	jmp	0x5b4	; 0x5b4 <__vector_2>
        } else if (time_sync_tmo<-4) {
    1746:	8c 3f       	cpi	r24, 0xFC	; 252
    1748:	6c f4       	brge	.+26     	; 0x1764 <wirelesTimeSyncCheck+0x6c>
			RFM_INT_DIS();
    174a:	80 91 6b 00 	lds	r24, 0x006B
    174e:	8f 7b       	andi	r24, 0xBF	; 191
    1750:	80 93 6b 00 	sts	0x006B, r24
		    RFM_OFF();		// turn everything off
    1754:	81 e0       	ldi	r24, 0x01	; 1
    1756:	92 e8       	ldi	r25, 0x82	; 130
    1758:	7c d2       	rcall	.+1272   	; 0x1c52 <rfm_spi16>
		    CTL_error |= CTL_ERR_RFM_SYNC;
    175a:	80 91 30 01 	lds	r24, 0x0130
    175e:	80 61       	ori	r24, 0x10	; 16
    1760:	80 93 30 01 	sts	0x0130, r24
    1764:	08 95       	ret

00001766 <encrypt_decrypt>:
 *  encrypt / decrypt
 *  \note symetric operation 
 ******************************************************************************/


static void encrypt_decrypt (uint8_t* p, uint8_t len) {
    1766:	a8 e0       	ldi	r26, 0x08	; 8
    1768:	b0 e0       	ldi	r27, 0x00	; 0
    176a:	e9 eb       	ldi	r30, 0xB9	; 185
    176c:	fb e0       	ldi	r31, 0x0B	; 11
    176e:	0c 94 b4 1d 	jmp	0x3b68	; 0x3b68 <__prologue_saves__+0x14>
    1772:	7c 01       	movw	r14, r24
    1774:	06 2f       	mov	r16, r22
    uint8_t i=0;
    uint8_t buf[8];
    while(i<len) {
    1776:	66 23       	and	r22, r22
    1778:	39 f1       	breq	.+78     	; 0x17c8 <encrypt_decrypt+0x62>
    177a:	10 e0       	ldi	r17, 0x00	; 0
        xtea_enc(buf,&RTC,K_enc);
    177c:	6e 01       	movw	r12, r28
    177e:	08 94       	sec
    1780:	c1 1c       	adc	r12, r1
    1782:	d1 1c       	adc	r13, r1
    1784:	c6 01       	movw	r24, r12
    1786:	6a e0       	ldi	r22, 0x0A	; 10
    1788:	71 e0       	ldi	r23, 0x01	; 1
    178a:	4f e9       	ldi	r20, 0x9F	; 159
    178c:	52 e0       	ldi	r21, 0x02	; 2
    178e:	1e d3       	rcall	.+1596   	; 0x1dcc <xtea_enc>
        RTC.pkt_cnt++;
    1790:	80 91 11 01 	lds	r24, 0x0111
    1794:	8f 5f       	subi	r24, 0xFF	; 255
    1796:	80 93 11 01 	sts	0x0111, r24
        do {
            p[i]^=buf[i&7];
    179a:	e1 2f       	mov	r30, r17
    179c:	f0 e0       	ldi	r31, 0x00	; 0
    179e:	d7 01       	movw	r26, r14
    17a0:	ae 0f       	add	r26, r30
    17a2:	bf 1f       	adc	r27, r31
    17a4:	e7 70       	andi	r30, 0x07	; 7
    17a6:	f0 70       	andi	r31, 0x00	; 0
    17a8:	ec 0d       	add	r30, r12
    17aa:	fd 1d       	adc	r31, r13
    17ac:	8c 91       	ld	r24, X
    17ae:	90 81       	ld	r25, Z
    17b0:	89 27       	eor	r24, r25
    17b2:	8c 93       	st	X, r24
            i++;
    17b4:	1f 5f       	subi	r17, 0xFF	; 255
            if (i>=len) return; //done
    17b6:	10 17       	cp	r17, r16
    17b8:	38 f4       	brcc	.+14     	; 0x17c8 <encrypt_decrypt+0x62>
        } while ((i&7)!=0);
    17ba:	81 2f       	mov	r24, r17
    17bc:	90 e0       	ldi	r25, 0x00	; 0
    17be:	87 70       	andi	r24, 0x07	; 7
    17c0:	90 70       	andi	r25, 0x00	; 0
    17c2:	89 2b       	or	r24, r25
    17c4:	51 f7       	brne	.-44     	; 0x179a <encrypt_decrypt+0x34>
    17c6:	de cf       	rjmp	.-68     	; 0x1784 <encrypt_decrypt+0x1e>
    }
}
    17c8:	28 96       	adiw	r28, 0x08	; 8
    17ca:	e8 e0       	ldi	r30, 0x08	; 8
    17cc:	0c 94 d0 1d 	jmp	0x3ba0	; 0x3ba0 <__epilogue_restores__+0x14>

000017d0 <wirelessSendPacket>:
 ******************************************************************************/

#if defined(MASTER_CONFIG_H)
static void wirelessSendPacket(void) {
#else
static void wirelessSendPacket(bool cpy) {
    17d0:	1f 93       	push	r17
    17d2:	18 2f       	mov	r17, r24
  COM_print_time('S');
#endif
    RFM_INT_DIS();
    17d4:	80 91 6b 00 	lds	r24, 0x006B
    17d8:	8f 7b       	andi	r24, 0xBF	; 191
    17da:	80 93 6b 00 	sts	0x006B, r24
	RFM_TX_ON_PRE();
    17de:	89 e1       	ldi	r24, 0x19	; 25
    17e0:	92 e8       	ldi	r25, 0x82	; 130
    17e2:	37 d2       	rcall	.+1134   	; 0x1c52 <rfm_spi16>

    memcpy_P(rfm_framebuf,wl_header,4);    
    17e4:	81 ec       	ldi	r24, 0xC1	; 193
    17e6:	92 e0       	ldi	r25, 0x02	; 2
    17e8:	60 e9       	ldi	r22, 0x90	; 144
    17ea:	71 e0       	ldi	r23, 0x01	; 1
    17ec:	44 e0       	ldi	r20, 0x04	; 4
    17ee:	50 e0       	ldi	r21, 0x00	; 0
    17f0:	0e 94 e7 1d 	call	0x3bce	; 0x3bce <memcpy_P>

#if defined(MASTER_CONFIG_H)
	rfm_framebuf[ 5] = 0;
#else
	rfm_framebuf[ 5] = config.RFM_devaddr;
    17f4:	80 91 7d 03 	lds	r24, 0x037D
    17f8:	80 93 c6 02 	sts	0x02C6, r24
	if (cpy)
    17fc:	11 23       	and	r17, r17
    17fe:	69 f0       	breq	.+26     	; 0x181a <wirelessSendPacket+0x4a>
#endif
    {
        rfm_framesize=wireless_buf_ptr+2+4;
    1800:	40 91 de 01 	lds	r20, 0x01DE
    1804:	4a 5f       	subi	r20, 0xFA	; 250
    1806:	40 93 09 01 	sts	0x0109, r20
    180a:	46 50       	subi	r20, 0x06	; 6
        memcpy(rfm_framebuf+6,wireless_framebuf,wireless_buf_ptr);
    180c:	87 ec       	ldi	r24, 0xC7	; 199
    180e:	92 e0       	ldi	r25, 0x02	; 2
    1810:	63 ee       	ldi	r22, 0xE3	; 227
    1812:	71 e0       	ldi	r23, 0x01	; 1
    1814:	50 e0       	ldi	r21, 0x00	; 0
    1816:	0e 94 f0 1d 	call	0x3be0	; 0x3be0 <memcpy>
    }
    
	rfm_framebuf[ 4] = rfm_framesize;    // length
    181a:	60 91 09 01 	lds	r22, 0x0109
    181e:	60 93 c5 02 	sts	0x02C5, r22
    
    encrypt_decrypt (rfm_framebuf+6, rfm_framesize - 4-2);
    1822:	66 50       	subi	r22, 0x06	; 6
    1824:	87 ec       	ldi	r24, 0xC7	; 199
    1826:	92 e0       	ldi	r25, 0x02	; 2
    1828:	9e df       	rcall	.-196    	; 0x1766 <encrypt_decrypt>
    cmac_calc(rfm_framebuf+5,rfm_framesize-5,(uint8_t*)&RTC,false);
    182a:	60 91 09 01 	lds	r22, 0x0109
    182e:	65 50       	subi	r22, 0x05	; 5
    1830:	86 ec       	ldi	r24, 0xC6	; 198
    1832:	92 e0       	ldi	r25, 0x02	; 2
    1834:	4a e0       	ldi	r20, 0x0A	; 10
    1836:	51 e0       	ldi	r21, 0x01	; 1
    1838:	20 e0       	ldi	r18, 0x00	; 0
    183a:	3c d2       	rcall	.+1144   	; 0x1cb4 <cmac_calc>
    RTC.pkt_cnt++;
    183c:	80 91 11 01 	lds	r24, 0x0111
    1840:	8f 5f       	subi	r24, 0xFF	; 255
    1842:	80 93 11 01 	sts	0x0111, r24
    rfm_framesize+=4+2; //4 MAC + 2 dummy
    1846:	80 91 09 01 	lds	r24, 0x0109
    184a:	8a 5f       	subi	r24, 0xFA	; 250
    184c:	80 93 09 01 	sts	0x0109, r24
	// rfm_framebuf[rfm_framesize++] = 0xaa; // dummy byte is not significant
	// rfm_framebuf[rfm_framesize++] = 0xaa; // dummy byte is not significant

	rfm_framepos  = 0;
    1850:	10 92 29 02 	sts	0x0229, r1
	rfm_mode = rfmmode_tx;
    1854:	82 e0       	ldi	r24, 0x02	; 2
    1856:	80 93 2a 02 	sts	0x022A, r24
	RFM_TX_ON();
    185a:	89 e3       	ldi	r24, 0x39	; 57
    185c:	92 e8       	ldi	r25, 0x82	; 130
    185e:	f9 d1       	rcall	.+1010   	; 0x1c52 <rfm_spi16>
    RFM_SPI_SELECT; // set nSEL low: from this moment SDO indicate FFIT or RGIT
    1860:	13 98       	cbi	0x02, 3	; 2
    RFM_INT_EN(); // enable RFM interrupt
    1862:	80 91 6b 00 	lds	r24, 0x006B
    1866:	80 64       	ori	r24, 0x40	; 64
    1868:	80 93 6b 00 	sts	0x006B, r24
    186c:	0e 94 da 02 	call	0x5b4	; 0x5b4 <__vector_2>
#if !defined(MASTER_CONFIG_H)
  COM_print_time('s');
#endif
}
    1870:	1f 91       	pop	r17
    1872:	08 95       	ret

00001874 <wirelessReceivePacket>:
#endif
/*!
 *******************************************************************************
 *  wireless receive data packet
 ******************************************************************************/
void wirelessReceivePacket(void) {
    1874:	1f 93       	push	r17
		if (!debug_R_send) {
			COM_print_time('R');
			debug_R_send=true;
		}
	#endif
	if (rfm_framepos>=1) {
    1876:	40 91 29 02 	lds	r20, 0x0229
    187a:	44 23       	and	r20, r20
    187c:	09 f4       	brne	.+2      	; 0x1880 <wirelessReceivePacket+0xc>
    187e:	29 c1       	rjmp	.+594    	; 0x1ad2 <wirelessReceivePacket+0x25e>
	    if (((rfm_framebuf[0]&0x7f)>= RFM_FRAME_MAX)  // reject noise
    1880:	60 91 c1 02 	lds	r22, 0x02C1
    1884:	26 2f       	mov	r18, r22
    1886:	30 e0       	ldi	r19, 0x00	; 0
    1888:	2f 77       	andi	r18, 0x7F	; 127
    188a:	30 70       	andi	r19, 0x00	; 0
    188c:	c9 01       	movw	r24, r18
    188e:	06 97       	sbiw	r24, 0x06	; 6
    1890:	8a 34       	cpi	r24, 0x4A	; 74
    1892:	91 05       	cpc	r25, r1
    1894:	10 f4       	brcc	.+4      	; 0x189a <wirelessReceivePacket+0x26>
    1896:	40 35       	cpi	r20, 0x50	; 80
    1898:	18 f0       	brcs	.+6      	; 0x18a0 <wirelessReceivePacket+0x2c>
			#if DEBUG_PRINT_ADDITIONAL_TIMESTAMPS
				debug_R_send=false;
    			COM_putchar('\n');
	            COM_flush();
			#endif
			rfm_framepos=0;
    189a:	10 92 29 02 	sts	0x0229, r1
    189e:	19 c1       	rjmp	.+562    	; 0x1ad2 <wirelessReceivePacket+0x25e>
			return; // !!! return !!!
		}
                
        if (rfm_framepos >= (rfm_framebuf[0]&0x7f)) { 
    18a0:	50 e0       	ldi	r21, 0x00	; 0
    18a2:	42 17       	cp	r20, r18
    18a4:	53 07       	cpc	r21, r19
    18a6:	0c f4       	brge	.+2      	; 0x18aa <wirelessReceivePacket+0x36>
    18a8:	14 c1       	rjmp	.+552    	; 0x1ad2 <wirelessReceivePacket+0x25e>
			#if DEBUG_PRINT_ADDITIONAL_TIMESTAMPS
				debug_R_send=false;
			#endif
		
            RFM_INT_DIS(); // disable RFM interrupt
    18aa:	80 91 6b 00 	lds	r24, 0x006B
    18ae:	8f 7b       	andi	r24, 0xBF	; 191
    18b0:	80 93 6b 00 	sts	0x006B, r24
            if (rfm_framepos>(rfm_framebuf[0]&0x7f)) rfm_framepos=(rfm_framebuf[0]&0x7f);
    18b4:	24 17       	cp	r18, r20
    18b6:	35 07       	cpc	r19, r21
    18b8:	24 f4       	brge	.+8      	; 0x18c2 <wirelessReceivePacket+0x4e>
    18ba:	86 2f       	mov	r24, r22
    18bc:	8f 77       	andi	r24, 0x7F	; 127
    18be:	80 93 29 02 	sts	0x0229, r24
            
            {
                bool mac_ok;
                #if ! defined(MASTER_CONFIG_H)
                if ((rfm_framebuf[0]&0x80) == 0x80) {
    18c2:	67 ff       	sbrs	r22, 7
    18c4:	89 c0       	rjmp	.+274    	; 0x19d8 <wirelessReceivePacket+0x164>
                //sync packet
                    mac_ok=cmac_calc(rfm_framebuf+1,(rfm_framebuf[0]&0x7f)-5,NULL,true);
    18c6:	6f 77       	andi	r22, 0x7F	; 127
    18c8:	65 50       	subi	r22, 0x05	; 5
    18ca:	82 ec       	ldi	r24, 0xC2	; 194
    18cc:	92 e0       	ldi	r25, 0x02	; 2
    18ce:	40 e0       	ldi	r20, 0x00	; 0
    18d0:	50 e0       	ldi	r21, 0x00	; 0
    18d2:	21 e0       	ldi	r18, 0x01	; 1
    18d4:	ef d1       	rcall	.+990    	; 0x1cb4 <cmac_calc>
                    COM_dump_packet(rfm_framebuf, rfm_framepos,mac_ok);
                    if (mac_ok) {
    18d6:	88 23       	and	r24, r24
    18d8:	09 f4       	brne	.+2      	; 0x18dc <wirelessReceivePacket+0x68>
    18da:	e9 c0       	rjmp	.+466    	; 0x1aae <wirelessReceivePacket+0x23a>
                        rfm_mode = rfmmode_stop;
    18dc:	10 92 2a 02 	sts	0x022A, r1
                        RFM_OFF();
    18e0:	81 e0       	ldi	r24, 0x01	; 1
    18e2:	92 e8       	ldi	r25, 0x82	; 130
    18e4:	b6 d1       	rcall	.+876    	; 0x1c52 <rfm_spi16>
                        RTC_timer_destroy(WL_TIMER_RX_TMO);
    18e6:	80 91 2b 02 	lds	r24, 0x022B
    18ea:	8b 7f       	andi	r24, 0xFB	; 251
    18ec:	80 93 2b 02 	sts	0x022B, r24
    18f0:	80 91 2c 02 	lds	r24, 0x022C
    18f4:	8b 7f       	andi	r24, 0xFB	; 251
    18f6:	80 93 2c 02 	sts	0x022C, r24

                        if (rfm_framebuf[0]==0x8b) {
    18fa:	80 91 c1 02 	lds	r24, 0x02C1
    18fe:	8b 38       	cpi	r24, 0x8B	; 139
    1900:	49 f4       	brne	.+18     	; 0x1914 <wirelessReceivePacket+0xa0>
                            wl_force_addr1=rfm_framebuf[5];
    1902:	80 91 c6 02 	lds	r24, 0x02C6
    1906:	80 93 c0 02 	sts	0x02C0, r24
                            wl_force_addr2=rfm_framebuf[6];
    190a:	80 91 c7 02 	lds	r24, 0x02C7
    190e:	80 93 bf 02 	sts	0x02BF, r24
    1912:	11 c0       	rjmp	.+34     	; 0x1936 <wirelessReceivePacket+0xc2>
                        } else if (rfm_framebuf[0]==0x8d) {
    1914:	8d 38       	cpi	r24, 0x8D	; 141
    1916:	61 f4       	brne	.+24     	; 0x1930 <wirelessReceivePacket+0xbc>
                            wl_force_addr1=0xff;
    1918:	8f ef       	ldi	r24, 0xFF	; 255
    191a:	80 93 c0 02 	sts	0x02C0, r24
                            // wl_force_addr2=0xff;
                            memcpy(&wl_force_flags,rfm_framebuf+5,4);
    191e:	83 e9       	ldi	r24, 0x93	; 147
    1920:	92 e0       	ldi	r25, 0x02	; 2
    1922:	66 ec       	ldi	r22, 0xC6	; 198
    1924:	72 e0       	ldi	r23, 0x02	; 2
    1926:	44 e0       	ldi	r20, 0x04	; 4
    1928:	50 e0       	ldi	r21, 0x00	; 0
    192a:	0e 94 f0 1d 	call	0x3be0	; 0x3be0 <memcpy>
    192e:	03 c0       	rjmp	.+6      	; 0x1936 <wirelessReceivePacket+0xc2>
                        } else {
							#if (WL_SKIP_SYNC)
								wl_skip_sync=WL_SKIP_SYNC;
    1930:	83 e0       	ldi	r24, 0x03	; 3
    1932:	80 93 e1 01 	sts	0x01E1, r24
							#endif
						}
                        time_sync_tmo=20;
    1936:	84 e1       	ldi	r24, 0x14	; 20
    1938:	80 93 e0 01 	sts	0x01E0, r24
                        while (ASSR & (_BV(TCR2UB))) {
    193c:	80 91 b6 00 	lds	r24, 0x00B6
    1940:	80 fd       	sbrc	r24, 0
    1942:	fc cf       	rjmp	.-8      	; 0x193c <wirelessReceivePacket+0xc8>
                              result. Since TCNT2 is clocked on the asynchronous TOSC clock, reading TCNT2 must be
                              done through a register synchronized to the internal I/O clock domain. Synchronization takes
                              place for every rising TOSC1 edge.
                            */
                        }
                        if (RTC_s256>0x80) {
    1944:	80 91 b2 00 	lds	r24, 0x00B2
    1948:	81 38       	cpi	r24, 0x81	; 129
    194a:	58 f0       	brcs	.+22     	; 0x1962 <wirelessReceivePacket+0xee>
                            // round to upper number compencastion
                            RTC_s256=4;
    194c:	84 e0       	ldi	r24, 0x04	; 4
    194e:	80 93 b2 00 	sts	0x00B2, r24
                            cli(); RTC_timer_done|=_BV(RTC_TIMER_OVF); sei();
    1952:	f8 94       	cli
    1954:	80 91 2c 02 	lds	r24, 0x022C
    1958:	81 60       	ori	r24, 0x01	; 1
    195a:	80 93 2c 02 	sts	0x022C, r24
    195e:	78 94       	sei
                            task|=TASK_RTC;
    1960:	f1 9a       	sbi	0x1e, 1	; 30
                        }
                        GTCCR=_BV(PSR2); 
    1962:	82 e0       	ldi	r24, 0x02	; 2
    1964:	83 bd       	out	0x23, r24	; 35
                        RTC_s256=10;
    1966:	8a e0       	ldi	r24, 0x0A	; 10
    1968:	80 93 b2 00 	sts	0x00B2, r24
                        while (ASSR & (_BV(TCN2UB))) {
    196c:	80 91 b6 00 	lds	r24, 0x00B6
    1970:	82 fd       	sbrc	r24, 2
    1972:	fc cf       	rjmp	.-8      	; 0x196c <wirelessReceivePacket+0xf8>
                            ;
                            // wait for clock sync
                            // it can take 2*1/32768 sec = 61us
                            // ATmega169 datasheet chapter 17.8.1
                        } 
            		    CTL_error &= ~CTL_ERR_RFM_SYNC;
    1974:	80 91 30 01 	lds	r24, 0x0130
    1978:	8f 7e       	andi	r24, 0xEF	; 239
    197a:	80 93 30 01 	sts	0x0130, r24
                        RTC_SetYear(rfm_framebuf[1]);
    197e:	80 91 c2 02 	lds	r24, 0x02C2
    1982:	16 d5       	rcall	.+2604   	; 0x23b0 <RTC_SetYear>
                        RTC_SetMonth(rfm_framebuf[2]>>4);
    1984:	80 91 c3 02 	lds	r24, 0x02C3
    1988:	82 95       	swap	r24
    198a:	8f 70       	andi	r24, 0x0F	; 15
    198c:	14 d5       	rcall	.+2600   	; 0x23b6 <RTC_SetMonth>
                        RTC_SetDay((rfm_framebuf[3]>>5)+((rfm_framebuf[2]<<3)&0x18));
    198e:	80 91 c3 02 	lds	r24, 0x02C3
    1992:	88 0f       	add	r24, r24
    1994:	88 0f       	add	r24, r24
    1996:	88 0f       	add	r24, r24
    1998:	88 71       	andi	r24, 0x18	; 24
    199a:	90 91 c4 02 	lds	r25, 0x02C4
    199e:	92 95       	swap	r25
    19a0:	96 95       	lsr	r25
    19a2:	97 70       	andi	r25, 0x07	; 7
    19a4:	89 0f       	add	r24, r25
    19a6:	0f d5       	rcall	.+2590   	; 0x23c6 <RTC_SetDay>
            			RTC_SetHour(rfm_framebuf[3]&0x1f);
    19a8:	80 91 c4 02 	lds	r24, 0x02C4
    19ac:	8f 71       	andi	r24, 0x1F	; 31
    19ae:	8c d2       	rcall	.+1304   	; 0x1ec8 <RTC_SetHour>
            			RTC_SetMinute(rfm_framebuf[4]>>1);
    19b0:	80 91 c5 02 	lds	r24, 0x02C5
    19b4:	86 95       	lsr	r24
    19b6:	8f d2       	rcall	.+1310   	; 0x1ed6 <RTC_SetMinute>
            			RTC_SetSecond((rfm_framebuf[4]&1)?30:00);
    19b8:	80 91 c5 02 	lds	r24, 0x02C5
    19bc:	80 fd       	sbrc	r24, 0
    19be:	02 c0       	rjmp	.+4      	; 0x19c4 <wirelessReceivePacket+0x150>
    19c0:	80 e0       	ldi	r24, 0x00	; 0
    19c2:	01 c0       	rjmp	.+2      	; 0x19c6 <wirelessReceivePacket+0x152>
    19c4:	8e e1       	ldi	r24, 0x1E	; 30
    19c6:	8e d2       	rcall	.+1308   	; 0x1ee4 <RTC_SetSecond>
                        cli(); RTC_timer_done&=~_BV(RTC_TIMER_RTC); sei();  // do not add one second
    19c8:	f8 94       	cli
    19ca:	80 91 2c 02 	lds	r24, 0x022C
    19ce:	8f 77       	andi	r24, 0x7F	; 127
    19d0:	80 93 2c 02 	sts	0x022C, r24
    19d4:	78 94       	sei
    19d6:	7d c0       	rjmp	.+250    	; 0x1ad2 <wirelessReceivePacket+0x25e>
                        return;
                    }
                } else 
                #endif
                {
                    RTC.pkt_cnt+= (rfm_framepos+7-2-4)/8;
    19d8:	60 91 29 02 	lds	r22, 0x0229
    19dc:	86 2f       	mov	r24, r22
    19de:	90 e0       	ldi	r25, 0x00	; 0
    19e0:	01 96       	adiw	r24, 0x01	; 1
    19e2:	23 e0       	ldi	r18, 0x03	; 3
    19e4:	95 95       	asr	r25
    19e6:	87 95       	ror	r24
    19e8:	2a 95       	dec	r18
    19ea:	e1 f7       	brne	.-8      	; 0x19e4 <wirelessReceivePacket+0x170>
    19ec:	20 91 11 01 	lds	r18, 0x0111
    19f0:	28 0f       	add	r18, r24
    19f2:	20 93 11 01 	sts	0x0111, r18
                    mac_ok = cmac_calc(rfm_framebuf+1,rfm_framepos-1-4,(uint8_t*)&RTC,true);
    19f6:	65 50       	subi	r22, 0x05	; 5
    19f8:	82 ec       	ldi	r24, 0xC2	; 194
    19fa:	92 e0       	ldi	r25, 0x02	; 2
    19fc:	4a e0       	ldi	r20, 0x0A	; 10
    19fe:	51 e0       	ldi	r21, 0x01	; 1
    1a00:	21 e0       	ldi	r18, 0x01	; 1
    1a02:	58 d1       	rcall	.+688    	; 0x1cb4 <cmac_calc>
    1a04:	18 2f       	mov	r17, r24
                    RTC.pkt_cnt-= (rfm_framepos+7-2-4)/8;
    1a06:	20 91 29 02 	lds	r18, 0x0229
    1a0a:	82 2f       	mov	r24, r18
    1a0c:	90 e0       	ldi	r25, 0x00	; 0
    1a0e:	01 96       	adiw	r24, 0x01	; 1
    1a10:	68 e0       	ldi	r22, 0x08	; 8
    1a12:	70 e0       	ldi	r23, 0x00	; 0
    1a14:	0e 94 5a 1d 	call	0x3ab4	; 0x3ab4 <__divmodhi4>
    1a18:	80 91 11 01 	lds	r24, 0x0111
    1a1c:	86 1b       	sub	r24, r22
    1a1e:	80 93 11 01 	sts	0x0111, r24
                    encrypt_decrypt (rfm_framebuf+2, rfm_framepos-2-4);
    1a22:	26 50       	subi	r18, 0x06	; 6
    1a24:	83 ec       	ldi	r24, 0xC3	; 195
    1a26:	92 e0       	ldi	r25, 0x02	; 2
    1a28:	62 2f       	mov	r22, r18
    1a2a:	9d de       	rcall	.-710    	; 0x1766 <encrypt_decrypt>
                    RTC.pkt_cnt++;
    1a2c:	80 91 11 01 	lds	r24, 0x0111
    1a30:	8f 5f       	subi	r24, 0xFF	; 255
    1a32:	80 93 11 01 	sts	0x0111, r24
                          wl_packet_bank++;
                          wirelessSendPacket();
                          return;
                        }
                    #else
                        if (mac_ok && (rfm_framebuf[1]==0)) { // Accept commands from master only
    1a36:	11 23       	and	r17, r17
    1a38:	d1 f1       	breq	.+116    	; 0x1aae <wirelessReceivePacket+0x23a>
    1a3a:	80 91 c2 02 	lds	r24, 0x02C2
    1a3e:	88 23       	and	r24, r24
    1a40:	b1 f5       	brne	.+108    	; 0x1aae <wirelessReceivePacket+0x23a>
                          wireless_buf_ptr=0;
    1a42:	10 92 de 01 	sts	0x01DE, r1
                          RTC_timer_destroy(WL_TIMER_RX_TMO);
    1a46:	80 91 2b 02 	lds	r24, 0x022B
    1a4a:	8b 7f       	andi	r24, 0xFB	; 251
    1a4c:	80 93 2b 02 	sts	0x022B, r24
    1a50:	80 91 2c 02 	lds	r24, 0x022C
    1a54:	8b 7f       	andi	r24, 0xFB	; 251
    1a56:	80 93 2c 02 	sts	0x022C, r24
                          if (rfm_framepos==4+2) { // empty packet don't need reply
    1a5a:	60 91 29 02 	lds	r22, 0x0229
    1a5e:	66 30       	cpi	r22, 0x06	; 6
    1a60:	31 f4       	brne	.+12     	; 0x1a6e <wirelessReceivePacket+0x1fa>
                            rfm_mode = rfmmode_stop;
    1a62:	10 92 2a 02 	sts	0x022A, r1
                            RFM_OFF();
    1a66:	81 e0       	ldi	r24, 0x01	; 1
    1a68:	92 e8       	ldi	r25, 0x82	; 130
    1a6a:	f3 d0       	rcall	.+486    	; 0x1c52 <rfm_spi16>
    1a6c:	32 c0       	rjmp	.+100    	; 0x1ad2 <wirelessReceivePacket+0x25e>
                            return;
                          }
                          rfm_framesize=4+2;
    1a6e:	86 e0       	ldi	r24, 0x06	; 6
    1a70:	80 93 09 01 	sts	0x0109, r24
                          {
                              // !! hack
                              // move input to top of buffer, begining of buffer will be used for output
                              uint8_t i;
                              uint8_t j=RFM_FRAME_MAX-1;
                              for (i=rfm_framepos-5;i>=2;i--) {
    1a74:	96 2f       	mov	r25, r22
    1a76:	95 50       	subi	r25, 0x05	; 5
    1a78:	2f e4       	ldi	r18, 0x4F	; 79
    1a7a:	0c c0       	rjmp	.+24     	; 0x1a94 <wirelessReceivePacket+0x220>
                                  rfm_framebuf[j--] = rfm_framebuf[i];
    1a7c:	e2 2f       	mov	r30, r18
    1a7e:	f0 e0       	ldi	r31, 0x00	; 0
    1a80:	ef 53       	subi	r30, 0x3F	; 63
    1a82:	fd 4f       	sbci	r31, 0xFD	; 253
    1a84:	a9 2f       	mov	r26, r25
    1a86:	b0 e0       	ldi	r27, 0x00	; 0
    1a88:	af 53       	subi	r26, 0x3F	; 63
    1a8a:	bd 4f       	sbci	r27, 0xFD	; 253
    1a8c:	8c 91       	ld	r24, X
    1a8e:	80 83       	st	Z, r24
    1a90:	21 50       	subi	r18, 0x01	; 1
                          {
                              // !! hack
                              // move input to top of buffer, begining of buffer will be used for output
                              uint8_t i;
                              uint8_t j=RFM_FRAME_MAX-1;
                              for (i=rfm_framepos-5;i>=2;i--) {
    1a92:	91 50       	subi	r25, 0x01	; 1
    1a94:	92 30       	cpi	r25, 0x02	; 2
    1a96:	90 f7       	brcc	.-28     	; 0x1a7c <wirelessReceivePacket+0x208>
                                  rfm_framebuf[j--] = rfm_framebuf[i];
                              }
                          }
                          COM_wireless_command_parse(rfm_framebuf+RFM_FRAME_MAX+6-rfm_framepos, rfm_framepos-6);
    1a98:	86 e5       	ldi	r24, 0x56	; 86
    1a9a:	90 e0       	ldi	r25, 0x00	; 0
    1a9c:	86 1b       	sub	r24, r22
    1a9e:	91 09       	sbc	r25, r1
    1aa0:	66 50       	subi	r22, 0x06	; 6
    1aa2:	8f 53       	subi	r24, 0x3F	; 63
    1aa4:	9d 4f       	sbci	r25, 0xFD	; 253
    1aa6:	38 dc       	rcall	.-1936   	; 0x1318 <COM_wireless_command_parse>
                          wirelessSendPacket(false);
    1aa8:	80 e0       	ldi	r24, 0x00	; 0
    1aaa:	92 de       	rcall	.-732    	; 0x17d0 <wirelessSendPacket>
    1aac:	12 c0       	rjmp	.+36     	; 0x1ad2 <wirelessReceivePacket+0x25e>
                          return;
                        }
                    #endif
                }
            }
            rfm_framepos=0;
    1aae:	10 92 29 02 	sts	0x0229, r1
		    rfm_mode = rfmmode_rx;
    1ab2:	84 e0       	ldi	r24, 0x04	; 4
    1ab4:	80 93 2a 02 	sts	0x022A, r24
          	RFM_SPI_16(RFM_FIFO_IT(8) |               RFM_FIFO_DR);
    1ab8:	81 e8       	ldi	r24, 0x81	; 129
    1aba:	9a ec       	ldi	r25, 0xCA	; 202
    1abc:	ca d0       	rcall	.+404    	; 0x1c52 <rfm_spi16>
            RFM_SPI_16(RFM_FIFO_IT(8) | RFM_FIFO_FF | RFM_FIFO_DR);
    1abe:	83 e8       	ldi	r24, 0x83	; 131
    1ac0:	9a ec       	ldi	r25, 0xCA	; 202
    1ac2:	c7 d0       	rcall	.+398    	; 0x1c52 <rfm_spi16>
            RFM_INT_EN(); // enable RFM interrupt
    1ac4:	80 91 6b 00 	lds	r24, 0x006B
    1ac8:	80 64       	ori	r24, 0x40	; 64
    1aca:	80 93 6b 00 	sts	0x006B, r24
    1ace:	0e 94 da 02 	call	0x5b4	; 0x5b4 <__vector_2>
        }
    }
}
    1ad2:	1f 91       	pop	r17
    1ad4:	08 95       	ret

00001ad6 <crypto_init>:
/*!
 *******************************************************************************
 *  init crypto keys
 ******************************************************************************/

void crypto_init(void) {
    1ad6:	0f 93       	push	r16
    1ad8:	1f 93       	push	r17
    1ada:	cf 93       	push	r28
    1adc:	df 93       	push	r29
    uint8_t i;
    memcpy(K_m,config.security_key,8);
    1ade:	8f ea       	ldi	r24, 0xAF	; 175
    1ae0:	92 e0       	ldi	r25, 0x02	; 2
    1ae2:	6e e7       	ldi	r22, 0x7E	; 126
    1ae4:	73 e0       	ldi	r23, 0x03	; 3
    1ae6:	48 e0       	ldi	r20, 0x08	; 8
    1ae8:	50 e0       	ldi	r21, 0x00	; 0
    1aea:	0e 94 f0 1d 	call	0x3be0	; 0x3be0 <memcpy>
    memcpy_P(K_m+8,Km_upper,sizeof(Km_upper)); 
    1aee:	87 eb       	ldi	r24, 0xB7	; 183
    1af0:	92 e0       	ldi	r25, 0x02	; 2
    1af2:	64 e9       	ldi	r22, 0x94	; 148
    1af4:	71 e0       	ldi	r23, 0x01	; 1
    1af6:	48 e0       	ldi	r20, 0x08	; 8
    1af8:	50 e0       	ldi	r21, 0x00	; 0
    1afa:	0e 94 e7 1d 	call	0x3bce	; 0x3bce <memcpy_P>
    1afe:	20 e0       	ldi	r18, 0x00	; 0
    1b00:	30 e0       	ldi	r19, 0x00	; 0
    for (i=0;i<3*8;i++) {
        Keys[i]=0xc0+i;
    1b02:	f9 01       	movw	r30, r18
    1b04:	e9 56       	subi	r30, 0x69	; 105
    1b06:	fd 4f       	sbci	r31, 0xFD	; 253
    1b08:	82 2f       	mov	r24, r18
    1b0a:	80 54       	subi	r24, 0x40	; 64
    1b0c:	80 83       	st	Z, r24
    1b0e:	2f 5f       	subi	r18, 0xFF	; 255
    1b10:	3f 4f       	sbci	r19, 0xFF	; 255

void crypto_init(void) {
    uint8_t i;
    memcpy(K_m,config.security_key,8);
    memcpy_P(K_m+8,Km_upper,sizeof(Km_upper)); 
    for (i=0;i<3*8;i++) {
    1b12:	28 31       	cpi	r18, 0x18	; 24
    1b14:	31 05       	cpc	r19, r1
    1b16:	a9 f7       	brne	.-22     	; 0x1b02 <crypto_init+0x2c>
        Keys[i]=0xc0+i;
    }
    xtea_enc(K_mac, K_mac, K_m); /* generate K_mac low 8 bytes */
    1b18:	87 e9       	ldi	r24, 0x97	; 151
    1b1a:	92 e0       	ldi	r25, 0x02	; 2
    1b1c:	bc 01       	movw	r22, r24
    1b1e:	4f ea       	ldi	r20, 0xAF	; 175
    1b20:	52 e0       	ldi	r21, 0x02	; 2
    1b22:	54 d1       	rcall	.+680    	; 0x1dcc <xtea_enc>
    xtea_enc(K_enc, K_enc, K_m); /* generate K_mac high 8 bytes  and K_enc low 8 bytes*/
    1b24:	8f e9       	ldi	r24, 0x9F	; 159
    1b26:	92 e0       	ldi	r25, 0x02	; 2
    1b28:	bc 01       	movw	r22, r24
    1b2a:	4f ea       	ldi	r20, 0xAF	; 175
    1b2c:	52 e0       	ldi	r21, 0x02	; 2
    1b2e:	4e d1       	rcall	.+668    	; 0x1dcc <xtea_enc>
    xtea_enc(K_enc+8, K_enc+8, K_m); /* generate K_enc high 8 bytes */
    1b30:	87 ea       	ldi	r24, 0xA7	; 167
    1b32:	92 e0       	ldi	r25, 0x02	; 2
    1b34:	bc 01       	movw	r22, r24
    1b36:	4f ea       	ldi	r20, 0xAF	; 175
    1b38:	52 e0       	ldi	r21, 0x02	; 2
    1b3a:	48 d1       	rcall	.+656    	; 0x1dcc <xtea_enc>
    1b3c:	ef ea       	ldi	r30, 0xAF	; 175
    1b3e:	f2 e0       	ldi	r31, 0x02	; 2
    for (i=0;i<8;i++) { // smaller&faster than memset
        K1[i]=0;
    1b40:	11 92       	st	Z+, r1
        Keys[i]=0xc0+i;
    }
    xtea_enc(K_mac, K_mac, K_m); /* generate K_mac low 8 bytes */
    xtea_enc(K_enc, K_enc, K_m); /* generate K_mac high 8 bytes  and K_enc low 8 bytes*/
    xtea_enc(K_enc+8, K_enc+8, K_m); /* generate K_enc high 8 bytes */
    for (i=0;i<8;i++) { // smaller&faster than memset
    1b42:	82 e0       	ldi	r24, 0x02	; 2
    1b44:	e7 3b       	cpi	r30, 0xB7	; 183
    1b46:	f8 07       	cpc	r31, r24
    1b48:	d9 f7       	brne	.-10     	; 0x1b40 <crypto_init+0x6a>
        K1[i]=0;
    }
    xtea_enc(K1, K1, K_mac);
    1b4a:	8f 01       	movw	r16, r30
    1b4c:	08 50       	subi	r16, 0x08	; 8
    1b4e:	10 40       	sbci	r17, 0x00	; 0
    1b50:	b0 97       	sbiw	r30, 0x20	; 32
    1b52:	c8 01       	movw	r24, r16
    1b54:	b8 01       	movw	r22, r16
    1b56:	af 01       	movw	r20, r30
    1b58:	39 d1       	rcall	.+626    	; 0x1dcc <xtea_enc>
    asm (
    1b5a:	e8 01       	movw	r28, r16
    1b5c:	fe 01       	movw	r30, r28
    1b5e:	9e dd       	rcall	.-1220   	; 0x169c <left_roll>
    1b60:	e7 eb       	ldi	r30, 0xB7	; 183
    1b62:	f2 e0       	ldi	r31, 0x02	; 2
    1b64:	9b dd       	rcall	.-1226   	; 0x169c <left_roll>
    );
    #if defined(MASTER_CONFIG_H)
        LED_RX_off();
        LED_sync_off();
    #endif
}
    1b66:	df 91       	pop	r29
    1b68:	cf 91       	pop	r28
    1b6a:	1f 91       	pop	r17
    1b6c:	0f 91       	pop	r16
    1b6e:	08 95       	ret

00001b70 <wirelessTimer>:
 *  wireless Timer
 ******************************************************************************/
void wirelessTimer(void) {
#if !defined(MASTER_CONFIG_H)   
    COM_print_time('t');
    switch (wirelessTimerCase) {
    1b70:	80 91 df 01 	lds	r24, 0x01DF
    1b74:	82 30       	cpi	r24, 0x02	; 2
    1b76:	a1 f1       	breq	.+104    	; 0x1be0 <wirelessTimer+0x70>
    1b78:	83 30       	cpi	r24, 0x03	; 3
    1b7a:	31 f0       	breq	.+12     	; 0x1b88 <wirelessTimer+0x18>
    1b7c:	81 30       	cpi	r24, 0x01	; 1
    1b7e:	09 f0       	breq	.+2      	; 0x1b82 <wirelessTimer+0x12>
    1b80:	3d c0       	rjmp	.+122    	; 0x1bfc <wirelessTimer+0x8c>
    case WL_TIMER_FIRST:
        wirelessSendPacket(true);
    1b82:	81 e0       	ldi	r24, 0x01	; 1
    1b84:	25 de       	rcall	.-950    	; 0x17d0 <wirelessSendPacket>
    1b86:	3a c0       	rjmp	.+116    	; 0x1bfc <wirelessTimer+0x8c>
        break;
    case WL_TIMER_SYNC:
        RFM_INT_DIS();
    1b88:	80 91 6b 00 	lds	r24, 0x006B
    1b8c:	8f 7b       	andi	r24, 0xBF	; 191
    1b8e:	80 93 6b 00 	sts	0x006B, r24
        wl_force_addr1=0;
    1b92:	10 92 c0 02 	sts	0x02C0, r1
        wl_force_addr2=0;
    1b96:	10 92 bf 02 	sts	0x02BF, r1
        RFM_SPI_16(RFM_FIFO_IT(8) |               RFM_FIFO_DR);
    1b9a:	81 e8       	ldi	r24, 0x81	; 129
    1b9c:	9a ec       	ldi	r25, 0xCA	; 202
    1b9e:	59 d0       	rcall	.+178    	; 0x1c52 <rfm_spi16>
        RFM_SPI_16(RFM_FIFO_IT(8) | RFM_FIFO_FF | RFM_FIFO_DR);
    1ba0:	83 e8       	ldi	r24, 0x83	; 131
    1ba2:	9a ec       	ldi	r25, 0xCA	; 202
    1ba4:	56 d0       	rcall	.+172    	; 0x1c52 <rfm_spi16>
        RFM_RX_ON();
    1ba6:	89 ed       	ldi	r24, 0xD9	; 217
    1ba8:	92 e8       	ldi	r25, 0x82	; 130
    1baa:	53 d0       	rcall	.+166    	; 0x1c52 <rfm_spi16>
        RFM_SPI_SELECT; // set nSEL low: from this moment SDO indicate FFIT or RGIT
    1bac:	13 98       	cbi	0x02, 3	; 2
        RFM_INT_EN(); // enable RFM interrupt
    1bae:	80 91 6b 00 	lds	r24, 0x006B
    1bb2:	80 64       	ori	r24, 0x40	; 64
    1bb4:	80 93 6b 00 	sts	0x006B, r24
    1bb8:	0e 94 da 02 	call	0x5b4	; 0x5b4 <__vector_2>
        rfm_framepos=0;
    1bbc:	10 92 29 02 	sts	0x0229, r1
      	rfm_mode = rfmmode_rx;
    1bc0:	84 e0       	ldi	r24, 0x04	; 4
    1bc2:	80 93 2a 02 	sts	0x022A, r24
        wirelessTimerCase = WL_TIMER_RX_TMO;
    1bc6:	82 e0       	ldi	r24, 0x02	; 2
    1bc8:	80 93 df 01 	sts	0x01DF, r24
        while (ASSR & (_BV(TCR2UB))) {;}
    1bcc:	80 91 b6 00 	lds	r24, 0x00B6
    1bd0:	80 fd       	sbrc	r24, 0
    1bd2:	fc cf       	rjmp	.-8      	; 0x1bcc <wirelessTimer+0x5c>
        RTC_timer_set(RTC_TIMER_RFM, (uint8_t)(RTC_s256 + WLTIME_SYNC_TIMEOUT));    
    1bd4:	60 91 b2 00 	lds	r22, 0x00B2
    1bd8:	6a 5f       	subi	r22, 0xFA	; 250
    1bda:	82 e0       	ldi	r24, 0x02	; 2
    1bdc:	8a d1       	rcall	.+788    	; 0x1ef2 <RTC_timer_set>
    1bde:	0e c0       	rjmp	.+28     	; 0x1bfc <wirelessTimer+0x8c>
        break;
    case WL_TIMER_RX_TMO:
        if (rfm_mode!= rfmmode_tx) {
    1be0:	80 91 2a 02 	lds	r24, 0x022A
    1be4:	82 30       	cpi	r24, 0x02	; 2
    1be6:	51 f0       	breq	.+20     	; 0x1bfc <wirelessTimer+0x8c>
            RFM_INT_DIS();
    1be8:	80 91 6b 00 	lds	r24, 0x006B
    1bec:	8f 7b       	andi	r24, 0xBF	; 191
    1bee:	80 93 6b 00 	sts	0x006B, r24
            rfm_mode    = rfmmode_stop;
    1bf2:	10 92 2a 02 	sts	0x022A, r1
            RFM_OFF();
    1bf6:	81 e0       	ldi	r24, 0x01	; 1
    1bf8:	92 e8       	ldi	r25, 0x82	; 130
    1bfa:	2b d0       	rcall	.+86     	; 0x1c52 <rfm_spi16>
        }
        break;
	default:
		break;
    }
    wirelessTimerCase = WL_TIMER_NONE;
    1bfc:	10 92 df 01 	sts	0x01DF, r1
}
    1c00:	08 95       	ret

00001c02 <wirelessSendDone>:
/*!
 *******************************************************************************
 *  wireless send Done
 ******************************************************************************/
void wirelessSendDone(void) {
    RFM_INT_DIS();
    1c02:	80 91 6b 00 	lds	r24, 0x006B
    1c06:	8f 7b       	andi	r24, 0xBF	; 191
    1c08:	80 93 6b 00 	sts	0x006B, r24
    rfm_mode    = rfmmode_stop;
    1c0c:	10 92 2a 02 	sts	0x022A, r1
    #if defined(MASTER_CONFIG_H)
        wireless_buf_ptr=0;
    #endif
    rfm_framepos=0;
    1c10:	10 92 29 02 	sts	0x0229, r1

    RFM_SPI_16(RFM_FIFO_IT(8) |               RFM_FIFO_DR);
    1c14:	81 e8       	ldi	r24, 0x81	; 129
    1c16:	9a ec       	ldi	r25, 0xCA	; 202
    1c18:	1c d0       	rcall	.+56     	; 0x1c52 <rfm_spi16>
    RFM_SPI_16(RFM_FIFO_IT(8) | RFM_FIFO_FF | RFM_FIFO_DR);
    1c1a:	83 e8       	ldi	r24, 0x83	; 131
    1c1c:	9a ec       	ldi	r25, 0xCA	; 202
    1c1e:	19 d0       	rcall	.+50     	; 0x1c52 <rfm_spi16>
    RFM_RX_ON();    //re-enable RX
    1c20:	89 ed       	ldi	r24, 0xD9	; 217
    1c22:	92 e8       	ldi	r25, 0x82	; 130
    1c24:	16 d0       	rcall	.+44     	; 0x1c52 <rfm_spi16>
    rfm_mode = rfmmode_rx;
    1c26:	84 e0       	ldi	r24, 0x04	; 4
    1c28:	80 93 2a 02 	sts	0x022A, r24
    RFM_INT_EN(); // enable RFM interrupt
    1c2c:	80 91 6b 00 	lds	r24, 0x006B
    1c30:	80 64       	ori	r24, 0x40	; 64
    1c32:	80 93 6b 00 	sts	0x006B, r24
    1c36:	0e 94 da 02 	call	0x5b4	; 0x5b4 <__vector_2>

    #if !defined(MASTER_CONFIG_H)
        wirelessTimerCase = WL_TIMER_RX_TMO;
    1c3a:	82 e0       	ldi	r24, 0x02	; 2
    1c3c:	80 93 df 01 	sts	0x01DF, r24
        while (ASSR & (_BV(TCR2UB))) {;}
    1c40:	80 91 b6 00 	lds	r24, 0x00B6
    1c44:	80 fd       	sbrc	r24, 0
    1c46:	fc cf       	rjmp	.-8      	; 0x1c40 <wirelessSendDone+0x3e>
        RTC_timer_set(RTC_TIMER_RFM, (uint8_t)(RTC_s256 + WLTIME_TIMEOUT));    
    1c48:	60 91 b2 00 	lds	r22, 0x00B2
    1c4c:	6c 5e       	subi	r22, 0xEC	; 236
    1c4e:	82 e0       	ldi	r24, 0x02	; 2
        COM_print_time('r');
    #endif    
}
    1c50:	50 c1       	rjmp	.+672    	; 0x1ef2 <RTC_timer_set>

00001c52 <rfm_spi16>:
uint16_t rfm_spi16(uint16_t outval)
{
  uint8_t i;
  uint16_t ret; // =0; <- not needeed will be shifted out
  
  RFM_SPI_SELECT;
    1c52:	13 98       	cbi	0x02, 3	; 2
    1c54:	40 e1       	ldi	r20, 0x10	; 16

  for (i=16;i!=0;i--)
  {
    if (0x8000 & outval)
    1c56:	97 ff       	sbrs	r25, 7
    1c58:	02 c0       	rjmp	.+4      	; 0x1c5e <rfm_spi16+0xc>
    {
      RFM_SPI_MOSI_HIGH;
    1c5a:	88 9a       	sbi	0x11, 0	; 17
    1c5c:	01 c0       	rjmp	.+2      	; 0x1c60 <rfm_spi16+0xe>
    }
    else
    {
      RFM_SPI_MOSI_LOW;
    1c5e:	88 98       	cbi	0x11, 0	; 17
    }
	  outval <<= 1;

    RFM_SPI_SCK_HIGH;
    1c60:	89 9a       	sbi	0x11, 1	; 17

    {
      ret <<= 1;
    1c62:	22 0f       	add	r18, r18
    1c64:	33 1f       	adc	r19, r19
      if (RFM_SPI_MISO_GET)
    1c66:	66 99       	sbic	0x0c, 6	; 12
      {
	      ret |= 1;
    1c68:	21 60       	ori	r18, 0x01	; 1
      }
    }
    RFM_SPI_SCK_LOW;
    1c6a:	89 98       	cbi	0x11, 1	; 17
  uint8_t i;
  uint16_t ret; // =0; <- not needeed will be shifted out
  
  RFM_SPI_SELECT;

  for (i=16;i!=0;i--)
    1c6c:	41 50       	subi	r20, 0x01	; 1
    1c6e:	19 f0       	breq	.+6      	; 0x1c76 <rfm_spi16+0x24>
    }
    else
    {
      RFM_SPI_MOSI_LOW;
    }
	  outval <<= 1;
    1c70:	88 0f       	add	r24, r24
    1c72:	99 1f       	adc	r25, r25
    1c74:	f0 cf       	rjmp	.-32     	; 0x1c56 <rfm_spi16+0x4>
      }
    }
    RFM_SPI_SCK_LOW;
  }
  
  RFM_SPI_DESELECT;
    1c76:	13 9a       	sbi	0x02, 3	; 2
  RFM_SPI_SELECT;
    1c78:	13 98       	cbi	0x02, 3	; 2

  return(ret);
}
    1c7a:	c9 01       	movw	r24, r18
    1c7c:	08 95       	ret

00001c7e <RFM_init>:
void RFM_init(void)
{
	// 0. Init the SPI backend
	//RFM_TESTPIN_INIT;

	RFM_READ_STATUS();
    1c7e:	80 e0       	ldi	r24, 0x00	; 0
    1c80:	90 e0       	ldi	r25, 0x00	; 0
    1c82:	e7 df       	rcall	.-50     	; 0x1c52 <rfm_spi16>

	// 1. Configuration Setting Command
	RFM_SPI_16(
    1c84:	87 ee       	ldi	r24, 0xE7	; 231
    1c86:	90 e8       	ldi	r25, 0x80	; 128
    1c88:	e4 df       	rcall	.-56     	; 0x1c52 <rfm_spi16>
	//RFM_SPI_16(
	//	 RFM_POWER_MANAGEMENT     // switch all off
	//	 );

	// 3. Frequency Setting Command
	RFM_SPI_16(
    1c8a:	85 e8       	ldi	r24, 0x85	; 133
    1c8c:	96 ea       	ldi	r25, 0xA6	; 166
    1c8e:	e1 df       	rcall	.-62     	; 0x1c52 <rfm_spi16>
		RFM_FREQUENCY            | 
		RFM_FREQ_868Band(868.35)
	 );

	// 4. Data Rate Command
	RFM_SPI_16(RFM_SET_DATARATE(RFM_BAUD_RATE));
    1c90:	80 e1       	ldi	r24, 0x10	; 16
    1c92:	96 ec       	ldi	r25, 0xC6	; 198
    1c94:	de df       	rcall	.-68     	; 0x1c52 <rfm_spi16>

	// 5. Receiver Control Command
	RFM_SPI_16(
    1c96:	83 ea       	ldi	r24, 0xA3	; 163
    1c98:	94 e9       	ldi	r25, 0x94	; 148
    1c9a:	db df       	rcall	.-74     	; 0x1c52 <rfm_spi16>
		RFM_RX_CONTROL_GAIN_0   |
		RFM_RX_CONTROL_RSSI_85
	 );

	// 6. Data Filter Command
	RFM_SPI_16(
    1c9c:	8b ee       	ldi	r24, 0xEB	; 235
    1c9e:	92 ec       	ldi	r25, 0xC2	; 194
    1ca0:	d8 df       	rcall	.-80     	; 0x1c52 <rfm_spi16>
		RFM_DATA_FILTER_ML      |
		RFM_DATA_FILTER_DQD(3)             
	 );

	// 7. FIFO and Reset Mode Command
	RFM_SPI_16(
    1ca2:	81 e8       	ldi	r24, 0x81	; 129
    1ca4:	9a ec       	ldi	r25, 0xCA	; 202
    1ca6:	d5 df       	rcall	.-86     	; 0x1c52 <rfm_spi16>
	 );

	// 8. Receiver FIFO Read

	// 9. AFC Command
	RFM_SPI_16(
    1ca8:	87 ea       	ldi	r24, 0xA7	; 167
    1caa:	94 ec       	ldi	r25, 0xC4	; 196
    1cac:	d2 df       	rcall	.-92     	; 0x1c52 <rfm_spi16>
		RFM_AFC_OE              |
		RFM_AFC_FI     
	 );

	// 10. TX Configuration Control Command
	RFM_SPI_16(
    1cae:	80 e3       	ldi	r24, 0x30	; 48
    1cb0:	98 e9       	ldi	r25, 0x98	; 152
	//	 RFM_LOW_BATT_DETECT |
	//	 3      // 2.2V + v * 0.1V
	//	 );

	// 15. Status Read Command
}
    1cb2:	cf cf       	rjmp	.-98     	; 0x1c52 <rfm_spi16>

00001cb4 <cmac_calc>:
#include "../common/xtea.h"
#include "../common/wireless.h"

#if RFM

bool cmac_calc (uint8_t* m, uint8_t bytes, uint8_t* data_prefix, bool check) {
    1cb4:	a8 e0       	ldi	r26, 0x08	; 8
    1cb6:	b0 e0       	ldi	r27, 0x00	; 0
    1cb8:	e0 e6       	ldi	r30, 0x60	; 96
    1cba:	fe e0       	ldi	r31, 0x0E	; 14
    1cbc:	0c 94 ae 1d 	jmp	0x3b5c	; 0x3b5c <__prologue_saves__+0x8>
    1cc0:	6c 01       	movw	r12, r24
    1cc2:	f6 2e       	mov	r15, r22
    1cc4:	e2 2e       	mov	r14, r18
    1cc6:	8e 01       	movw	r16, r28
    1cc8:	0f 5f       	subi	r16, 0xFF	; 255
    1cca:	1f 4f       	sbci	r17, 0xFF	; 255
 *   8.Add MAC to end of "m" 
 */
  
    uint8_t i,j;
    uint8_t buf[8];
    if (data_prefix==NULL) {
    1ccc:	41 15       	cp	r20, r1
    1cce:	51 05       	cpc	r21, r1
    1cd0:	41 f4       	brne	.+16     	; 0x1ce2 <cmac_calc+0x2e>
    1cd2:	f8 01       	movw	r30, r16
        for (i=0;i<8;buf[i++]=0) {;}
    1cd4:	ce 01       	movw	r24, r28
    1cd6:	09 96       	adiw	r24, 0x09	; 9
    1cd8:	11 92       	st	Z+, r1
    1cda:	e8 17       	cp	r30, r24
    1cdc:	f9 07       	cpc	r31, r25
    1cde:	e1 f7       	brne	.-8      	; 0x1cd8 <cmac_calc+0x24>
    1ce0:	0b c0       	rjmp	.+22     	; 0x1cf8 <cmac_calc+0x44>
    } else {
        memcpy(buf,data_prefix,8);
    1ce2:	c8 01       	movw	r24, r16
    1ce4:	ba 01       	movw	r22, r20
    1ce6:	48 e0       	ldi	r20, 0x08	; 8
    1ce8:	50 e0       	ldi	r21, 0x00	; 0
    1cea:	0e 94 f0 1d 	call	0x3be0	; 0x3be0 <memcpy>
        xtea_enc(buf, buf, K_mac);
    1cee:	c8 01       	movw	r24, r16
    1cf0:	b8 01       	movw	r22, r16
    1cf2:	47 e9       	ldi	r20, 0x97	; 151
    1cf4:	52 e0       	ldi	r21, 0x02	; 2
    1cf6:	6a d0       	rcall	.+212    	; 0x1dcc <xtea_enc>
    1cf8:	80 e0       	ldi	r24, 0x00	; 0

    for (i=0; i<bytes; ) { // i modification inside loop
        uint8_t x=i;
        i+=8;
        uint8_t* Kx;
        if (i>=bytes) Kx=((i==bytes)?K1:K2);
    1cfa:	5e 01       	movw	r10, r28
    1cfc:	08 94       	sec
    1cfe:	a1 1c       	adc	r10, r1
    1d00:	b1 1c       	adc	r11, r1
        for (j=0;j<8;j++,x++) {
    1d02:	39 e0       	ldi	r19, 0x09	; 9
    1d04:	63 2e       	mov	r6, r19
    1d06:	71 2c       	mov	r7, r1
    1d08:	6c 0e       	add	r6, r28
    1d0a:	7d 1e       	adc	r7, r29
    1d0c:	36 c0       	rjmp	.+108    	; 0x1d7a <cmac_calc+0xc6>
    } 


    for (i=0; i<bytes; ) { // i modification inside loop
        uint8_t x=i;
        i+=8;
    1d0e:	18 2f       	mov	r17, r24
    1d10:	18 5f       	subi	r17, 0xF8	; 248
        uint8_t* Kx;
        if (i>=bytes) Kx=((i==bytes)?K1:K2);
    1d12:	1f 15       	cp	r17, r15
    1d14:	58 f0       	brcs	.+22     	; 0x1d2c <cmac_calc+0x78>
    1d16:	1f 15       	cp	r17, r15
    1d18:	29 f0       	breq	.+10     	; 0x1d24 <cmac_calc+0x70>
    1d1a:	27 eb       	ldi	r18, 0xB7	; 183
    1d1c:	82 2e       	mov	r8, r18
    1d1e:	22 e0       	ldi	r18, 0x02	; 2
    1d20:	92 2e       	mov	r9, r18
    1d22:	04 c0       	rjmp	.+8      	; 0x1d2c <cmac_calc+0x78>
    1d24:	9f ea       	ldi	r25, 0xAF	; 175
    1d26:	89 2e       	mov	r8, r25
    1d28:	92 e0       	ldi	r25, 0x02	; 2
    1d2a:	99 2e       	mov	r9, r25
    1d2c:	a5 01       	movw	r20, r10
    1d2e:	94 01       	movw	r18, r8
    1d30:	98 2f       	mov	r25, r24
        for (j=0;j<8;j++,x++) {
            uint8_t tmp;
            if (x<bytes) tmp=m[x];
    1d32:	9f 15       	cp	r25, r15
    1d34:	28 f4       	brcc	.+10     	; 0x1d40 <cmac_calc+0x8c>
    1d36:	f6 01       	movw	r30, r12
    1d38:	e9 0f       	add	r30, r25
    1d3a:	f1 1d       	adc	r31, r1
    1d3c:	e0 81       	ld	r30, Z
    1d3e:	05 c0       	rjmp	.+10     	; 0x1d4a <cmac_calc+0x96>
            else tmp=((x==bytes)?0x80:0);
    1d40:	9f 15       	cp	r25, r15
    1d42:	11 f0       	breq	.+4      	; 0x1d48 <cmac_calc+0x94>
    1d44:	e0 e0       	ldi	r30, 0x00	; 0
    1d46:	01 c0       	rjmp	.+2      	; 0x1d4a <cmac_calc+0x96>
    1d48:	e0 e8       	ldi	r30, 0x80	; 128
            if (i>=bytes) tmp ^= Kx[j];
    1d4a:	1f 15       	cp	r17, r15
    1d4c:	18 f0       	brcs	.+6      	; 0x1d54 <cmac_calc+0xa0>
    1d4e:	d9 01       	movw	r26, r18
    1d50:	8c 91       	ld	r24, X
    1d52:	e8 27       	eor	r30, r24
            buf[j] ^= tmp;
    1d54:	da 01       	movw	r26, r20
    1d56:	8c 91       	ld	r24, X
    1d58:	8e 27       	eor	r24, r30
    1d5a:	fa 01       	movw	r30, r20
    1d5c:	81 93       	st	Z+, r24
    1d5e:	af 01       	movw	r20, r30
    1d60:	2f 5f       	subi	r18, 0xFF	; 255
    1d62:	3f 4f       	sbci	r19, 0xFF	; 255
    for (i=0; i<bytes; ) { // i modification inside loop
        uint8_t x=i;
        i+=8;
        uint8_t* Kx;
        if (i>=bytes) Kx=((i==bytes)?K1:K2);
        for (j=0;j<8;j++,x++) {
    1d64:	e6 15       	cp	r30, r6
    1d66:	f7 05       	cpc	r31, r7
    1d68:	11 f0       	breq	.+4      	; 0x1d6e <cmac_calc+0xba>
    1d6a:	9f 5f       	subi	r25, 0xFF	; 255
    1d6c:	e2 cf       	rjmp	.-60     	; 0x1d32 <cmac_calc+0x7e>
            if (x<bytes) tmp=m[x];
            else tmp=((x==bytes)?0x80:0);
            if (i>=bytes) tmp ^= Kx[j];
            buf[j] ^= tmp;
        }
        xtea_enc(buf, buf, K_mac);
    1d6e:	c5 01       	movw	r24, r10
    1d70:	b5 01       	movw	r22, r10
    1d72:	47 e9       	ldi	r20, 0x97	; 151
    1d74:	52 e0       	ldi	r21, 0x02	; 2
    1d76:	2a d0       	rcall	.+84     	; 0x1dcc <xtea_enc>
    1d78:	81 2f       	mov	r24, r17
        memcpy(buf,data_prefix,8);
        xtea_enc(buf, buf, K_mac);
    } 


    for (i=0; i<bytes; ) { // i modification inside loop
    1d7a:	8f 15       	cp	r24, r15
    1d7c:	40 f2       	brcs	.-112    	; 0x1d0e <cmac_calc+0x5a>
    1d7e:	8e 01       	movw	r16, r28
    1d80:	0f 5f       	subi	r16, 0xFF	; 255
    1d82:	1f 4f       	sbci	r17, 0xFF	; 255
    1d84:	6f 2d       	mov	r22, r15
    1d86:	70 e0       	ldi	r23, 0x00	; 0
            if (i>=bytes) tmp ^= Kx[j];
            buf[j] ^= tmp;
        }
        xtea_enc(buf, buf, K_mac);
    }
    if (check) {
    1d88:	ee 20       	and	r14, r14
    1d8a:	99 f0       	breq	.+38     	; 0x1db2 <cmac_calc+0xfe>
    1d8c:	d6 01       	movw	r26, r12
    1d8e:	a6 0f       	add	r26, r22
    1d90:	b7 1f       	adc	r27, r23
    1d92:	f8 01       	movw	r30, r16
        for (i=0;i<4;i++) {
    1d94:	9e 01       	movw	r18, r28
    1d96:	2b 5f       	subi	r18, 0xFB	; 251
    1d98:	3f 4f       	sbci	r19, 0xFF	; 255
            if (m[bytes+i]!=buf[i]) return false;
    1d9a:	9c 91       	ld	r25, X
    1d9c:	80 81       	ld	r24, Z
    1d9e:	98 17       	cp	r25, r24
    1da0:	11 f0       	breq	.+4      	; 0x1da6 <cmac_calc+0xf2>
    1da2:	80 e0       	ldi	r24, 0x00	; 0
    1da4:	0f c0       	rjmp	.+30     	; 0x1dc4 <cmac_calc+0x110>
    1da6:	11 96       	adiw	r26, 0x01	; 1
    1da8:	31 96       	adiw	r30, 0x01	; 1
            buf[j] ^= tmp;
        }
        xtea_enc(buf, buf, K_mac);
    }
    if (check) {
        for (i=0;i<4;i++) {
    1daa:	e2 17       	cp	r30, r18
    1dac:	f3 07       	cpc	r31, r19
    1dae:	a9 f7       	brne	.-22     	; 0x1d9a <cmac_calc+0xe6>
    1db0:	08 c0       	rjmp	.+16     	; 0x1dc2 <cmac_calc+0x10e>
            if (m[bytes+i]!=buf[i]) return false;
        }
    } else {
        memcpy(m+bytes,buf,4);
    1db2:	c6 01       	movw	r24, r12
    1db4:	86 0f       	add	r24, r22
    1db6:	97 1f       	adc	r25, r23
    1db8:	b8 01       	movw	r22, r16
    1dba:	44 e0       	ldi	r20, 0x04	; 4
    1dbc:	50 e0       	ldi	r21, 0x00	; 0
    1dbe:	0e 94 f0 1d 	call	0x3be0	; 0x3be0 <memcpy>
    1dc2:	81 e0       	ldi	r24, 0x01	; 1
        "r0", "r1", "r2", "r3", "r4", "r5", "r6", "r7", "r8", 
        "r9", "r10", "r11", "r12", "r13", "r14", "r15", "r16", 
        "r17", "r18", "r19", "r20", "r21", "r22", "r23", "r24" 
        ); 
    #endif
}
    1dc4:	28 96       	adiw	r28, 0x08	; 8
    1dc6:	ee e0       	ldi	r30, 0x0E	; 14
    1dc8:	0c 94 ca 1d 	jmp	0x3b94	; 0x3b94 <__epilogue_restores__+0x8>

00001dcc <xtea_enc>:
; param3: 16-bit pointer to the key (128-bit) 
;  given in r21,r20
;
xtea_enc:
 /* prolog */
 	push r2
    1dcc:	2f 92       	push	r2
 	push r3
    1dce:	3f 92       	push	r3
 	push r4
    1dd0:	4f 92       	push	r4
 	push r5
    1dd2:	5f 92       	push	r5
 	push r6
    1dd4:	6f 92       	push	r6
 	push r7
    1dd6:	7f 92       	push	r7
 	push r8
    1dd8:	8f 92       	push	r8
 	push r9
    1dda:	9f 92       	push	r9
 	push r14
    1ddc:	ef 92       	push	r14
 	push r15
    1dde:	ff 92       	push	r15
 	push r16
    1de0:	0f 93       	push	r16
 	push r17
    1de2:	1f 93       	push	r17
 	push r28
    1de4:	cf 93       	push	r28
 	
 /* load the block */
 	movw r26, r22 /* X points to block */
    1de6:	db 01       	movw	r26, r22
 	movw r30, r20 /* Z points to key   */
    1de8:	fa 01       	movw	r30, r20
 	ld V01, X+
    1dea:	2d 90       	ld	r2, X+
 	ld V02, X+
    1dec:	3d 90       	ld	r3, X+
 	ld V03, X+
    1dee:	4d 90       	ld	r4, X+
 	ld V04, X+
    1df0:	5d 90       	ld	r5, X+
 	ld V11, X+
    1df2:	6d 90       	ld	r6, X+
 	ld V12, X+
    1df4:	7d 90       	ld	r7, X+
 	ld V13, X+
    1df6:	8d 90       	ld	r8, X+
 	ld V14, X+
    1df8:	9d 90       	ld	r9, X+
; 	push r25
; 	push r24
 	movw r26, r24 /* X points to destination */
    1dfa:	dc 01       	movw	r26, r24
 
	ldi Func1, 32
    1dfc:	60 e2       	ldi	r22, 0x20	; 32
	mov r0, Func1 /* r1 is cycle-counter */
    1dfe:	06 2e       	mov	r0, r22
	clr Sum1
    1e00:	22 27       	eor	r18, r18
	clr Sum2
    1e02:	33 27       	eor	r19, r19
	movw Sum3, Sum1
    1e04:	a9 01       	movw	r20, r18
	clt
    1e06:	e8 94       	clt

1:
	movw Accu1, V11
    1e08:	73 01       	movw	r14, r6
	movw Accu3, V13
    1e0a:	84 01       	movw	r16, r8
	ldi C, 4
    1e0c:	c4 e0       	ldi	r28, 0x04	; 4
2:	lsl Accu1
    1e0e:	ee 0c       	add	r14, r14
	rol Accu2
    1e10:	ff 1c       	adc	r15, r15
	rol Accu3
    1e12:	00 1f       	adc	r16, r16
	rol Accu4
    1e14:	11 1f       	adc	r17, r17
	dec C
    1e16:	ca 95       	dec	r28
	brne 2b			/* Accu == V1 << 4 */
    1e18:	d1 f7       	brne	.-12     	; 0x1e0e <xtea_enc+0x42>

	movw Func1, V11
    1e1a:	b3 01       	movw	r22, r6
	movw Func3, V13
    1e1c:	c4 01       	movw	r24, r8
	ldi C, 5
    1e1e:	c5 e0       	ldi	r28, 0x05	; 5
3:	lsr Func4
    1e20:	96 95       	lsr	r25
	ror Func3
    1e22:	87 95       	ror	r24
	ror Func2
    1e24:	77 95       	ror	r23
	ror Func1
    1e26:	67 95       	ror	r22
	dec C
    1e28:	ca 95       	dec	r28
	brne 3b			/* Func == V1 >> 5 */
    1e2a:	d1 f7       	brne	.-12     	; 0x1e20 <xtea_enc+0x54>
	
	eor Accu1, Func1
    1e2c:	e6 26       	eor	r14, r22
	eor Accu2, Func2
    1e2e:	f7 26       	eor	r15, r23
	eor Accu3, Func3
    1e30:	08 27       	eor	r16, r24
	eor Accu4, Func4
    1e32:	19 27       	eor	r17, r25
	add Accu1, V11
    1e34:	e6 0c       	add	r14, r6
	adc Accu2, V12
    1e36:	f7 1c       	adc	r15, r7
	adc Accu3, V13
    1e38:	08 1d       	adc	r16, r8
	adc Accu4, V14	/* Accu == ( (V1<<4)^(V1>>5) ) + V1 */
    1e3a:	19 1d       	adc	r17, r9
	
	brtc 4f
    1e3c:	2e f4       	brtc	.+10     	; 0x1e48 <xtea_enc+0x7c>
	mov C, Sum2
    1e3e:	c3 2f       	mov	r28, r19
	lsr C
    1e40:	c6 95       	lsr	r28
	andi C,(0x03 <<2)
    1e42:	cc 70       	andi	r28, 0x0C	; 12
	clt
    1e44:	e8 94       	clt
	rjmp 5f
    1e46:	05 c0       	rjmp	.+10     	; 0x1e52 <xtea_enc+0x86>
4:	
	mov C, Sum1	/* calc key offset */
    1e48:	c2 2f       	mov	r28, r18
	andi C, 0x03
    1e4a:	c3 70       	andi	r28, 0x03	; 3
	lsl C
    1e4c:	cc 0f       	add	r28, r28
	lsl C
    1e4e:	cc 0f       	add	r28, r28
	set
    1e50:	68 94       	set
	
5:	
	add r30, C
    1e52:	ec 0f       	add	r30, r28
	adc r31, r1
    1e54:	f1 1d       	adc	r31, r1
	ld  Func1, Z
    1e56:	60 81       	ld	r22, Z
	ldd Func2, Z+1
    1e58:	71 81       	ldd	r23, Z+1	; 0x01
	ldd Func3, Z+2
    1e5a:	82 81       	ldd	r24, Z+2	; 0x02
	ldd Func4, Z+3 /* Func = key[sum & 3] */
    1e5c:	93 81       	ldd	r25, Z+3	; 0x03
	sub r30, C
    1e5e:	ec 1b       	sub	r30, r28
	sbci r31, 0
    1e60:	f0 40       	sbci	r31, 0x00	; 0
	add Func1, Sum1
    1e62:	62 0f       	add	r22, r18
	adc Func2, Sum2
    1e64:	73 1f       	adc	r23, r19
	adc Func3, Sum3
    1e66:	84 1f       	adc	r24, r20
	adc Func4, Sum4 
    1e68:	95 1f       	adc	r25, r21
	eor Accu1, Func1
    1e6a:	e6 26       	eor	r14, r22
	eor Accu2, Func2
    1e6c:	f7 26       	eor	r15, r23
	eor Accu3, Func3
    1e6e:	08 27       	eor	r16, r24
	eor Accu4, Func4 /* Accu = ((V1<<4 ^ V1>>5) + V1) ^ (sum + key[sum&3])  */
    1e70:	19 27       	eor	r17, r25
	add Accu1, V01
    1e72:	e2 0c       	add	r14, r2
	adc Accu2, V02
    1e74:	f3 1c       	adc	r15, r3
	adc Accu3, V03
    1e76:	04 1d       	adc	r16, r4
	adc Accu4, V04
    1e78:	15 1d       	adc	r17, r5
	
	movw V01, V11
    1e7a:	13 01       	movw	r2, r6
	movw V03, V13
    1e7c:	24 01       	movw	r4, r8
	movw V11, Accu1
    1e7e:	37 01       	movw	r6, r14
	movw V13, Accu3
    1e80:	48 01       	movw	r8, r16
	
	/* sum += delta */ /* delta == 0x9E3779B9 */
	brtc 6f
    1e82:	4e f4       	brtc	.+18     	; 0x1e96 <xtea_enc+0xca>
	ldi C, 0xB9
    1e84:	c9 eb       	ldi	r28, 0xB9	; 185
	add Sum1, C
    1e86:	2c 0f       	add	r18, r28
	ldi C, 0x79
    1e88:	c9 e7       	ldi	r28, 0x79	; 121
	adc Sum2, C
    1e8a:	3c 1f       	adc	r19, r28
	ldi C, 0x37
    1e8c:	c7 e3       	ldi	r28, 0x37	; 55
	adc Sum3, C
    1e8e:	4c 1f       	adc	r20, r28
	ldi C, 0x9E
    1e90:	ce e9       	ldi	r28, 0x9E	; 158
	adc Sum4, C
    1e92:	5c 1f       	adc	r21, r28
	rjmp 1b
    1e94:	b9 cf       	rjmp	.-142    	; 0x1e08 <xtea_enc+0x3c>
	
6:	
	dec r0
    1e96:	0a 94       	dec	r0
	breq 7f
    1e98:	09 f0       	breq	.+2      	; 0x1e9c <xtea_enc+0xd0>
	rjmp 1b 
    1e9a:	b6 cf       	rjmp	.-148    	; 0x1e08 <xtea_enc+0x3c>
 
 7:
 /* write block back */
 ;	pop r26
 ;	pop r27
 	st X+, V01
    1e9c:	2d 92       	st	X+, r2
 	st X+, V02
    1e9e:	3d 92       	st	X+, r3
 	st X+, V03
    1ea0:	4d 92       	st	X+, r4
  	st X+, V04
    1ea2:	5d 92       	st	X+, r5
 	st X+, V11
    1ea4:	6d 92       	st	X+, r6
 	st X+, V12
    1ea6:	7d 92       	st	X+, r7
 	st X+, V13
    1ea8:	8d 92       	st	X+, r8
 	st X+, V14
    1eaa:	9d 92       	st	X+, r9
 
 /* epilog */
 	pop r28
    1eac:	cf 91       	pop	r28
 	pop r17
    1eae:	1f 91       	pop	r17
 	pop r16
    1eb0:	0f 91       	pop	r16
 	pop r15
    1eb2:	ff 90       	pop	r15
 	pop r14
    1eb4:	ef 90       	pop	r14
 	pop r9
    1eb6:	9f 90       	pop	r9
 	pop r8
    1eb8:	8f 90       	pop	r8
 	pop r7
    1eba:	7f 90       	pop	r7
 	pop r6
    1ebc:	6f 90       	pop	r6
 	pop r5
    1ebe:	5f 90       	pop	r5
 	pop r4
    1ec0:	4f 90       	pop	r4
 	pop r3
    1ec2:	3f 90       	pop	r3
 	pop r2
    1ec4:	2f 90       	pop	r2
 	ret
    1ec6:	08 95       	ret

00001ec8 <RTC_SetHour>:
 *  set actual time
 *  \param hour new value for hour
 ******************************************************************************/
void RTC_SetHour(int8_t hour)
{
    RTC.hh = (uint8_t)(hour+24)%24;
    1ec8:	88 5e       	subi	r24, 0xE8	; 232
    1eca:	68 e1       	ldi	r22, 0x18	; 24
    1ecc:	0e 94 2d 1d 	call	0x3a5a	; 0x3a5a <__udivmodqi4>
    1ed0:	90 93 0d 01 	sts	0x010D, r25
}
    1ed4:	08 95       	ret

00001ed6 <RTC_SetMinute>:
 *  set actual time
 *  \param minute new value for minute
 ******************************************************************************/
void RTC_SetMinute(int8_t minute)
{
    RTC.mm = (uint8_t)(minute+60)%60;
    1ed6:	84 5c       	subi	r24, 0xC4	; 196
    1ed8:	6c e3       	ldi	r22, 0x3C	; 60
    1eda:	0e 94 2d 1d 	call	0x3a5a	; 0x3a5a <__udivmodqi4>
    1ede:	90 93 0e 01 	sts	0x010E, r25
}
    1ee2:	08 95       	ret

00001ee4 <RTC_SetSecond>:
 *  set actual time
 *  \param second new value for second
 ******************************************************************************/
void RTC_SetSecond(int8_t second)
{
    RTC.ss = (uint8_t)(second+60)%60;
    1ee4:	84 5c       	subi	r24, 0xC4	; 196
    1ee6:	6c e3       	ldi	r22, 0x3C	; 60
    1ee8:	0e 94 2d 1d 	call	0x3a5a	; 0x3a5a <__udivmodqi4>
    1eec:	90 93 0f 01 	sts	0x010F, r25
}
    1ef0:	08 95       	ret

00001ef2 <RTC_timer_set>:

void RTC_timer_set(uint8_t timer_id, uint8_t time) {
    uint8_t t2,i,next,dif;
    // next is uninitialized, it is correct
    
    cli();
    1ef2:	f8 94       	cli
    RTC_timer_todo |= _BV(timer_id);
    1ef4:	e8 2f       	mov	r30, r24
    1ef6:	f0 e0       	ldi	r31, 0x00	; 0
    1ef8:	81 e0       	ldi	r24, 0x01	; 1
    1efa:	90 e0       	ldi	r25, 0x00	; 0
    1efc:	0e 2e       	mov	r0, r30
    1efe:	02 c0       	rjmp	.+4      	; 0x1f04 <RTC_timer_set+0x12>
    1f00:	88 0f       	add	r24, r24
    1f02:	99 1f       	adc	r25, r25
    1f04:	0a 94       	dec	r0
    1f06:	e2 f7       	brpl	.-8      	; 0x1f00 <RTC_timer_set+0xe>
    1f08:	20 91 2b 02 	lds	r18, 0x022B
    1f0c:	28 2b       	or	r18, r24
    1f0e:	20 93 2b 02 	sts	0x022B, r18
	RTC_timer_time[timer_id-1]=time;
    1f12:	e4 5d       	subi	r30, 0xD4	; 212
    1f14:	fd 4f       	sbci	r31, 0xFD	; 253
    1f16:	60 83       	st	Z, r22
    t2=TCNT2;
    1f18:	30 91 b2 00 	lds	r19, 0x00B2
    dif=255;
    for (i=0;i<RTC_TIMERS;i++) {
        if ((RTC_timer_todo&(2<<i))) {
    1f1c:	82 2f       	mov	r24, r18
    1f1e:	21 fd       	sbrc	r18, 1
    1f20:	02 c0       	rjmp	.+4      	; 0x1f26 <RTC_timer_set+0x34>
    1f22:	2f ef       	ldi	r18, 0xFF	; 255
    1f24:	04 c0       	rjmp	.+8      	; 0x1f2e <RTC_timer_set+0x3c>
            if ((RTC_timer_time[i]-t2)<=dif) {
    1f26:	50 91 2d 02 	lds	r21, 0x022D
                next = RTC_timer_time[i];
                dif = next-t2;
    1f2a:	25 2f       	mov	r18, r21
    1f2c:	23 1b       	sub	r18, r19
    RTC_timer_todo |= _BV(timer_id);
	RTC_timer_time[timer_id-1]=time;
    t2=TCNT2;
    dif=255;
    for (i=0;i<RTC_TIMERS;i++) {
        if ((RTC_timer_todo&(2<<i))) {
    1f2e:	82 ff       	sbrs	r24, 2
    1f30:	0a c0       	rjmp	.+20     	; 0x1f46 <RTC_timer_set+0x54>
            if ((RTC_timer_time[i]-t2)<=dif) {
    1f32:	40 91 2e 02 	lds	r20, 0x022E
    1f36:	84 2f       	mov	r24, r20
    1f38:	90 e0       	ldi	r25, 0x00	; 0
    1f3a:	83 1b       	sub	r24, r19
    1f3c:	91 09       	sbc	r25, r1
    1f3e:	30 e0       	ldi	r19, 0x00	; 0
    1f40:	28 17       	cp	r18, r24
    1f42:	39 07       	cpc	r19, r25
    1f44:	0c f4       	brge	.+2      	; 0x1f48 <RTC_timer_set+0x56>
    1f46:	45 2f       	mov	r20, r21
        }
    }
    #if defined(MASTER_CONFIG_H)
        RTC_next_compare = next;
    #else
        if (OCR2A != next) {
    1f48:	80 91 b3 00 	lds	r24, 0x00B3
    1f4c:	84 17       	cp	r24, r20
    1f4e:	31 f0       	breq	.+12     	; 0x1f5c <RTC_timer_set+0x6a>
            while (ASSR & (1<<OCR2UB)) {;} // ATmega169 datasheet chapter 17.8.1
    1f50:	80 91 b6 00 	lds	r24, 0x00B6
    1f54:	81 fd       	sbrc	r24, 1
    1f56:	fc cf       	rjmp	.-8      	; 0x1f50 <RTC_timer_set+0x5e>
            OCR2A = next;
    1f58:	40 93 b3 00 	sts	0x00B3, r20
        }
    #endif
    sei();
    1f5c:	78 94       	sei
    #if ! defined(MASTER_CONFIG_H)
        TIMSK2 |= (1<<OCIE2A); // enable interupt again
    1f5e:	80 91 70 00 	lds	r24, 0x0070
    1f62:	82 60       	ori	r24, 0x02	; 2
    1f64:	80 93 70 00 	sts	0x0070, r24
    #endif
}
    1f68:	08 95       	ret

00001f6a <__vector_5>:
        #endif
    }
    #else
    // optimized
    ISR_NAKED ISR (TIMER2_OVF_vect) {
        asm volatile(
    1f6a:	0f 93       	push	r16
    1f6c:	0f b7       	in	r16, 0x3f	; 63
    1f6e:	0f 93       	push	r16
    1f70:	f1 9a       	sbi	0x1e, 1	; 30
    1f72:	00 91 2c 02 	lds	r16, 0x022C
    1f76:	01 68       	ori	r16, 0x81	; 129
    1f78:	00 93 2c 02 	sts	0x022C, r16
    1f7c:	0f 91       	pop	r16
    1f7e:	0f bf       	out	0x3f, r16	; 63
    1f80:	0f 91       	pop	r16
    1f82:	18 95       	reti

00001f84 <__vector_4>:
     *
     *  \note - clear keyboard timeout flag
     *  \note - disable this interrupt 
     *
     ******************************************************************************/
    ISR(TIMER2_COMP_vect) {
    1f84:	1f 92       	push	r1
    1f86:	0f 92       	push	r0
    1f88:	0f b6       	in	r0, 0x3f	; 63
    1f8a:	0f 92       	push	r0
    1f8c:	11 24       	eor	r1, r1
    1f8e:	2f 93       	push	r18
    1f90:	3f 93       	push	r19
    1f92:	4f 93       	push	r20
    1f94:	5f 93       	push	r21
    1f96:	6f 93       	push	r22
    1f98:	7f 93       	push	r23
    1f9a:	8f 93       	push	r24
    1f9c:	9f 93       	push	r25
		uint8_t t2=TCNT2-1;
    1f9e:	50 91 b2 00 	lds	r21, 0x00B2
    1fa2:	51 50       	subi	r21, 0x01	; 1
        task |= TASK_RTC;
    1fa4:	f1 9a       	sbi	0x1e, 1	; 30
        #if (DEBUG_PRINT_RTC_TICKS)
            COM_putchar('%');
        #endif
        if ((RTC_timer_todo&_BV(RTC_TIMER_KB)) && (t2==RTC_timer_time[RTC_TIMER_KB-1])) { 
    1fa6:	90 91 2b 02 	lds	r25, 0x022B
    1faa:	91 ff       	sbrs	r25, 1
    1fac:	0a c0       	rjmp	.+20     	; 0x1fc2 <__vector_4+0x3e>
    1fae:	80 91 2d 02 	lds	r24, 0x022D
    1fb2:	58 17       	cp	r21, r24
    1fb4:	31 f4       	brne	.+12     	; 0x1fc2 <__vector_4+0x3e>
            kb_timeout=true;   // keyboard noise cancelation
    1fb6:	81 e0       	ldi	r24, 0x01	; 1
    1fb8:	80 93 12 01 	sts	0x0112, r24
            RTC_timer_todo &= ~_BV(RTC_TIMER_KB);
    1fbc:	9d 7f       	andi	r25, 0xFD	; 253
    1fbe:	90 93 2b 02 	sts	0x022B, r25
        }
        {
            uint8_t i;
            for (i=2;i<=RTC_TIMERS;i++) {
                if ((RTC_timer_todo&_BV(i)) && (t2==RTC_timer_time[i-1])) { 
    1fc2:	90 91 2b 02 	lds	r25, 0x022B
    1fc6:	92 ff       	sbrs	r25, 2
    1fc8:	0c c0       	rjmp	.+24     	; 0x1fe2 <__vector_4+0x5e>
    1fca:	80 91 2e 02 	lds	r24, 0x022E
    1fce:	58 17       	cp	r21, r24
    1fd0:	41 f4       	brne	.+16     	; 0x1fe2 <__vector_4+0x5e>
                   RTC_timer_done |= _BV(i);
    1fd2:	80 91 2c 02 	lds	r24, 0x022C
    1fd6:	84 60       	ori	r24, 0x04	; 4
    1fd8:	80 93 2c 02 	sts	0x022C, r24
                   RTC_timer_todo &= ~_BV(i);
    1fdc:	9b 7f       	andi	r25, 0xFB	; 251
    1fde:	90 93 2b 02 	sts	0x022B, r25
            }                
        }
        uint8_t dif=255;
        uint8_t i,next;  // next is uninitialized, it is correct
        for (i=0;i<RTC_TIMERS;i++) {
            if ((RTC_timer_todo&(2<<i))) {
    1fe2:	70 91 2b 02 	lds	r23, 0x022B
    1fe6:	87 2f       	mov	r24, r23
    1fe8:	71 fd       	sbrc	r23, 1
    1fea:	02 c0       	rjmp	.+4      	; 0x1ff0 <__vector_4+0x6c>
    1fec:	2f ef       	ldi	r18, 0xFF	; 255
    1fee:	04 c0       	rjmp	.+8      	; 0x1ff8 <__vector_4+0x74>
                if ((RTC_timer_time[i]-t2)<=dif) {
    1ff0:	60 91 2d 02 	lds	r22, 0x022D
                    next = RTC_timer_time[i];
                    dif = next-t2;
    1ff4:	26 2f       	mov	r18, r22
    1ff6:	25 1b       	sub	r18, r21
            }                
        }
        uint8_t dif=255;
        uint8_t i,next;  // next is uninitialized, it is correct
        for (i=0;i<RTC_TIMERS;i++) {
            if ((RTC_timer_todo&(2<<i))) {
    1ff8:	82 ff       	sbrs	r24, 2
    1ffa:	0a c0       	rjmp	.+20     	; 0x2010 <__vector_4+0x8c>
                if ((RTC_timer_time[i]-t2)<=dif) {
    1ffc:	40 91 2e 02 	lds	r20, 0x022E
    2000:	84 2f       	mov	r24, r20
    2002:	90 e0       	ldi	r25, 0x00	; 0
    2004:	85 1b       	sub	r24, r21
    2006:	91 09       	sbc	r25, r1
    2008:	30 e0       	ldi	r19, 0x00	; 0
    200a:	28 17       	cp	r18, r24
    200c:	39 07       	cpc	r19, r25
    200e:	0c f4       	brge	.+2      	; 0x2012 <__vector_4+0x8e>
    2010:	46 2f       	mov	r20, r22
                    next = RTC_timer_time[i];
                    dif = next-t2;
                }
            }
        }
        if (OCR2A != next) {
    2012:	80 91 b3 00 	lds	r24, 0x00B3
    2016:	84 17       	cp	r24, r20
    2018:	11 f0       	breq	.+4      	; 0x201e <__vector_4+0x9a>
            // while (ASSR & (1<<OCR2UB)) {;} // ATmega169 datasheet chapter 17.8.1
            // waiting is not needed, it not allow timer state machine
            OCR2A = next;
    201a:	40 93 b3 00 	sts	0x00B3, r20
        }
        if (RTC_timer_todo==0) TIMSK2 &= ~(1<<OCIE2A);
    201e:	77 23       	and	r23, r23
    2020:	29 f4       	brne	.+10     	; 0x202c <__vector_4+0xa8>
    2022:	80 91 70 00 	lds	r24, 0x0070
    2026:	8d 7f       	andi	r24, 0xFD	; 253
    2028:	80 93 70 00 	sts	0x0070, r24
    }
    202c:	9f 91       	pop	r25
    202e:	8f 91       	pop	r24
    2030:	7f 91       	pop	r23
    2032:	6f 91       	pop	r22
    2034:	5f 91       	pop	r21
    2036:	4f 91       	pop	r20
    2038:	3f 91       	pop	r19
    203a:	2f 91       	pop	r18
    203c:	0f 90       	pop	r0
    203e:	0f be       	out	0x3f, r0	; 63
    2040:	0f 90       	pop	r0
    2042:	1f 90       	pop	r1
    2044:	18 95       	reti

00002046 <RTC_FindTimerRawIndex>:
 *
 *  \returns  index of timer
 *
 ******************************************************************************/

static uint8_t RTC_FindTimerRawIndex(uint8_t dow,uint16_t time_minutes) {
    2046:	a0 e0       	ldi	r26, 0x00	; 0
    2048:	b0 e0       	ldi	r27, 0x00	; 0
    204a:	e9 e2       	ldi	r30, 0x29	; 41
    204c:	f0 e1       	ldi	r31, 0x10	; 16
    204e:	0c 94 ab 1d 	jmp	0x3b56	; 0x3b56 <__prologue_saves__+0x2>
    2052:	d8 2e       	mov	r13, r24
    2054:	3b 01       	movw	r6, r22
    
    uint8_t search_timers=(dow>0)?8:2;
    2056:	88 23       	and	r24, r24
    2058:	19 f4       	brne	.+6      	; 0x2060 <RTC_FindTimerRawIndex+0x1a>
    205a:	42 e0       	ldi	r20, 0x02	; 2
    205c:	34 2e       	mov	r3, r20
    205e:	02 c0       	rjmp	.+4      	; 0x2064 <RTC_FindTimerRawIndex+0x1e>
    2060:	38 e0       	ldi	r19, 0x08	; 8
    2062:	33 2e       	mov	r3, r19
    2064:	aa 24       	eor	r10, r10
    2066:	aa 94       	dec	r10
    2068:	cc 24       	eor	r12, r12
    int8_t raw_index=-1;
    uint8_t i;
    for (i=0;i<search_timers;i++) {
        {
            uint8_t idx_raw = timers_get_raw_index(dow,0);
    206a:	8d 2c       	mov	r8, r13
    206c:	99 24       	eor	r9, r9
    206e:	74 01       	movw	r14, r8
    2070:	23 e0       	ldi	r18, 0x03	; 3
    2072:	ee 0c       	add	r14, r14
    2074:	ff 1c       	adc	r15, r15
    2076:	2a 95       	dec	r18
    2078:	e1 f7       	brne	.-8      	; 0x2072 <RTC_FindTimerRawIndex+0x2c>
    207a:	5e 2c       	mov	r5, r14
            uint8_t stop = idx_raw+RTC_TIMERS_PER_DOW;
    207c:	98 e0       	ldi	r25, 0x08	; 8
    207e:	49 2e       	mov	r4, r25
    2080:	4e 0c       	add	r4, r14
    2082:	00 e0       	ldi	r16, 0x00	; 0
    2084:	10 e0       	ldi	r17, 0x00	; 0
    2086:	c0 e0       	ldi	r28, 0x00	; 0
    2088:	d0 e0       	ldi	r29, 0x00	; 0
    208a:	10 c0       	rjmp	.+32     	; 0x20ac <RTC_FindTimerRawIndex+0x66>
            uint16_t maxtime=0;   
            // each timer until time_minutes
            for (; idx_raw<stop; idx_raw++){
                // check if timer > maxtime and timer <= actual time
                uint16_t table_time = eeprom_timers_read_raw(idx_raw) & 0x0fff;
    208c:	8f d6       	rcall	.+3358   	; 0x2dac <eeprom_timers_read_raw>
    208e:	9f 70       	andi	r25, 0x0F	; 15
                if (table_time>=24*60) continue;
    2090:	25 e0       	ldi	r18, 0x05	; 5
    2092:	80 3a       	cpi	r24, 0xA0	; 160
    2094:	92 07       	cpc	r25, r18
    2096:	48 f4       	brcc	.+18     	; 0x20aa <RTC_FindTimerRawIndex+0x64>
                if ((table_time >= maxtime) && (table_time <= time_minutes)) {
    2098:	80 17       	cp	r24, r16
    209a:	91 07       	cpc	r25, r17
    209c:	30 f0       	brcs	.+12     	; 0x20aa <RTC_FindTimerRawIndex+0x64>
    209e:	68 16       	cp	r6, r24
    20a0:	79 06       	cpc	r7, r25
    20a2:	18 f0       	brcs	.+6      	; 0x20aa <RTC_FindTimerRawIndex+0x64>
    20a4:	ab 2c       	mov	r10, r11
    20a6:	ae 0c       	add	r10, r14
    20a8:	8c 01       	movw	r16, r24
    20aa:	21 96       	adiw	r28, 0x01	; 1
 *
 *  \returns  index of timer
 *
 ******************************************************************************/

static uint8_t RTC_FindTimerRawIndex(uint8_t dow,uint16_t time_minutes) {
    20ac:	bc 2e       	mov	r11, r28
    20ae:	8c 2f       	mov	r24, r28
    20b0:	85 0d       	add	r24, r5
        {
            uint8_t idx_raw = timers_get_raw_index(dow,0);
            uint8_t stop = idx_raw+RTC_TIMERS_PER_DOW;
            uint16_t maxtime=0;   
            // each timer until time_minutes
            for (; idx_raw<stop; idx_raw++){
    20b2:	84 15       	cp	r24, r4
    20b4:	58 f3       	brcs	.-42     	; 0x208c <RTC_FindTimerRawIndex+0x46>
                    maxtime = table_time;
                    raw_index=idx_raw;
                }
            }
        }
        if (raw_index>=0) {
    20b6:	a7 fe       	sbrs	r10, 7
    20b8:	11 c0       	rjmp	.+34     	; 0x20dc <RTC_FindTimerRawIndex+0x96>
            break;
        }
        if (dow>0) dow=(dow+(7-2))%7+1;            
    20ba:	dd 20       	and	r13, r13
    20bc:	41 f0       	breq	.+16     	; 0x20ce <RTC_FindTimerRawIndex+0x88>
    20be:	c4 01       	movw	r24, r8
    20c0:	05 96       	adiw	r24, 0x05	; 5
    20c2:	67 e0       	ldi	r22, 0x07	; 7
    20c4:	70 e0       	ldi	r23, 0x00	; 0
    20c6:	0e 94 5a 1d 	call	0x3ab4	; 0x3ab4 <__divmodhi4>
    20ca:	d8 2e       	mov	r13, r24
    20cc:	d3 94       	inc	r13
static uint8_t RTC_FindTimerRawIndex(uint8_t dow,uint16_t time_minutes) {
    
    uint8_t search_timers=(dow>0)?8:2;
    int8_t raw_index=-1;
    uint8_t i;
    for (i=0;i<search_timers;i++) {
    20ce:	c3 94       	inc	r12
    20d0:	80 ea       	ldi	r24, 0xA0	; 160
    20d2:	68 2e       	mov	r6, r24
    20d4:	85 e0       	ldi	r24, 0x05	; 5
    20d6:	78 2e       	mov	r7, r24
    20d8:	c3 14       	cp	r12, r3
    20da:	38 f2       	brcs	.-114    	; 0x206a <RTC_FindTimerRawIndex+0x24>
        }
        if (dow>0) dow=(dow+(7-2))%7+1;            
        time_minutes=24*60;
    }
    return raw_index;    
}
    20dc:	8a 2d       	mov	r24, r10
    20de:	cd b7       	in	r28, 0x3d	; 61
    20e0:	de b7       	in	r29, 0x3e	; 62
    20e2:	e1 e1       	ldi	r30, 0x11	; 17
    20e4:	0c 94 c7 1d 	jmp	0x3b8e	; 0x3b8e <__epilogue_restores__+0x2>

000020e8 <RTC_ActualTimerTemperature>:
 *
 *  \returns temperature [see to \ref c2temp]
 *
 ******************************************************************************/

uint8_t RTC_ActualTimerTemperature(bool exact) {
    20e8:	ff 92       	push	r15
    20ea:	0f 93       	push	r16
    20ec:	1f 93       	push	r17
    20ee:	cf 93       	push	r28
    20f0:	df 93       	push	r29
    20f2:	f8 2e       	mov	r15, r24
    uint16_t minutes=RTC.hh*60 + RTC.mm;
    20f4:	90 91 0d 01 	lds	r25, 0x010D
    20f8:	8c e3       	ldi	r24, 0x3C	; 60
    20fa:	98 9f       	mul	r25, r24
    20fc:	e0 01       	movw	r28, r0
    20fe:	11 24       	eor	r1, r1
    2100:	80 91 0e 01 	lds	r24, 0x010E
    2104:	c8 0f       	add	r28, r24
    2106:	d1 1d       	adc	r29, r1
    int8_t dow=((config.timer_mode==1)?RTC.DOW:0);
    2108:	80 91 76 03 	lds	r24, 0x0376
    210c:	81 30       	cpi	r24, 0x01	; 1
    210e:	11 f0       	breq	.+4      	; 0x2114 <RTC_ActualTimerTemperature+0x2c>
    2110:	00 e0       	ldi	r16, 0x00	; 0
    2112:	02 c0       	rjmp	.+4      	; 0x2118 <RTC_ActualTimerTemperature+0x30>
    2114:	00 91 10 01 	lds	r16, 0x0110
    int8_t raw_index=RTC_FindTimerRawIndex(dow,minutes);
    2118:	80 2f       	mov	r24, r16
    211a:	be 01       	movw	r22, r28
    211c:	94 df       	rcall	.-216    	; 0x2046 <RTC_FindTimerRawIndex>
    211e:	18 2f       	mov	r17, r24
    uint16_t data = eeprom_timers_read_raw(raw_index);
    2120:	45 d6       	rcall	.+3210   	; 0x2dac <eeprom_timers_read_raw>
    2122:	fc 01       	movw	r30, r24
    if (raw_index<0) return 0; //not found
    2124:	17 fd       	sbrc	r17, 7
    2126:	15 c0       	rjmp	.+42     	; 0x2152 <RTC_ActualTimerTemperature+0x6a>
    if (exact) {
    2128:	ff 20       	and	r15, r15
    212a:	49 f0       	breq	.+18     	; 0x213e <RTC_ActualTimerTemperature+0x56>
        if ((data&0xfff) != minutes) return 0;
    212c:	9f 70       	andi	r25, 0x0F	; 15
    212e:	8c 17       	cp	r24, r28
    2130:	9d 07       	cpc	r25, r29
    2132:	79 f4       	brne	.+30     	; 0x2152 <RTC_ActualTimerTemperature+0x6a>
        if ((raw_index/RTC_TIMERS_PER_DOW) != dow) return 0;
    2134:	15 95       	asr	r17
    2136:	15 95       	asr	r17
    2138:	15 95       	asr	r17
    213a:	10 17       	cp	r17, r16
    213c:	51 f4       	brne	.+20     	; 0x2152 <RTC_ActualTimerTemperature+0x6a>
    }
    return temperature_table[(data >> 12) & 3];
    213e:	ef 2f       	mov	r30, r31
    2140:	ff 27       	eor	r31, r31
    2142:	e2 95       	swap	r30
    2144:	ef 70       	andi	r30, 0x0F	; 15
    2146:	e3 70       	andi	r30, 0x03	; 3
    2148:	f0 70       	andi	r31, 0x00	; 0
    214a:	e9 5a       	subi	r30, 0xA9	; 169
    214c:	fc 4f       	sbci	r31, 0xFC	; 252
    214e:	80 81       	ld	r24, Z
    2150:	01 c0       	rjmp	.+2      	; 0x2154 <RTC_ActualTimerTemperature+0x6c>
    2152:	80 e0       	ldi	r24, 0x00	; 0
}
    2154:	cd b7       	in	r28, 0x3d	; 61
    2156:	de b7       	in	r29, 0x3e	; 62
    2158:	e5 e0       	ldi	r30, 0x05	; 5
    215a:	0c 94 d3 1d 	jmp	0x3ba6	; 0x3ba6 <__epilogue_restores__+0x1a>

0000215e <RTC_DowTimerGetHourBar>:
 *  \returns bitmap
 *  
 *  \note battery expensive function, use buffer for result  
 *
 ******************************************************************************/
int32_t RTC_DowTimerGetHourBar(uint8_t dow) {
    215e:	a0 e0       	ldi	r26, 0x00	; 0
    2160:	b0 e0       	ldi	r27, 0x00	; 0
    2162:	e5 eb       	ldi	r30, 0xB5	; 181
    2164:	f0 e1       	ldi	r31, 0x10	; 16
    2166:	0c 94 b4 1d 	jmp	0x3b68	; 0x3b68 <__prologue_saves__+0x14>
    216a:	c8 2e       	mov	r12, r24
    216c:	c0 ea       	ldi	r28, 0xA0	; 160
    216e:	d5 e0       	ldi	r29, 0x05	; 5
    2170:	77 e1       	ldi	r23, 0x17	; 23
    2172:	d7 2e       	mov	r13, r23
    2174:	ee 24       	eor	r14, r14
    2176:	ff 24       	eor	r15, r15
    2178:	87 01       	movw	r16, r14
    int16_t time=24*60;
    int8_t bar_pos=23;
    uint32_t bitmap=0;
    
    while(time>0) {
        int8_t raw_idx=RTC_FindTimerRawIndex(dow, time);
    217a:	8c 2d       	mov	r24, r12
    217c:	be 01       	movw	r22, r28
    217e:	63 df       	rcall	.-314    	; 0x2046 <RTC_FindTimerRawIndex>
        uint16_t table_time = ((raw_idx >= 0) ? eeprom_timers_read_raw(raw_idx) : 0);
    2180:	87 ff       	sbrs	r24, 7
    2182:	03 c0       	rjmp	.+6      	; 0x218a <RTC_DowTimerGetHourBar+0x2c>
    2184:	80 e0       	ldi	r24, 0x00	; 0
    2186:	90 e0       	ldi	r25, 0x00	; 0
    2188:	01 c0       	rjmp	.+2      	; 0x218c <RTC_DowTimerGetHourBar+0x2e>
    218a:	10 d6       	rcall	.+3104   	; 0x2dac <eeprom_timers_read_raw>
        bool bit = ((table_time & 0x3000) >= 0x2000);
    218c:	9c 01       	movw	r18, r24
    218e:	20 70       	andi	r18, 0x00	; 0
    2190:	30 73       	andi	r19, 0x30	; 48
        if ((table_time&0xfff) < time) {
    2192:	9f 70       	andi	r25, 0x0F	; 15
    2194:	8c 17       	cp	r24, r28
    2196:	9d 07       	cpc	r25, r29
    2198:	18 f0       	brcs	.+6      	; 0x21a0 <RTC_DowTimerGetHourBar+0x42>
    219a:	cf ef       	ldi	r28, 0xFF	; 255
    219c:	df ef       	ldi	r29, 0xFF	; 255
    219e:	02 c0       	rjmp	.+4      	; 0x21a4 <RTC_DowTimerGetHourBar+0x46>
            time = (table_time&0xfff)-1;
    21a0:	ec 01       	movw	r28, r24
    21a2:	21 97       	sbiw	r28, 0x01	; 1
    21a4:	4d 2d       	mov	r20, r13
    21a6:	5c e3       	ldi	r21, 0x3C	; 60
    21a8:	45 02       	muls	r20, r21
    21aa:	c0 01       	movw	r24, r0
    21ac:	11 24       	eor	r1, r1
    21ae:	14 c0       	rjmp	.+40     	; 0x21d8 <RTC_DowTimerGetHourBar+0x7a>
        } else {
            time = -1;
        }
        {
            while (((int16_t)(bar_pos))*60 > time) {            
	            if (bit) bitmap |= 1;
    21b0:	60 e2       	ldi	r22, 0x20	; 32
    21b2:	20 30       	cpi	r18, 0x00	; 0
    21b4:	36 07       	cpc	r19, r22
    21b6:	40 f0       	brcs	.+16     	; 0x21c8 <RTC_DowTimerGetHourBar+0x6a>
    21b8:	41 e0       	ldi	r20, 0x01	; 1
    21ba:	50 e0       	ldi	r21, 0x00	; 0
    21bc:	60 e0       	ldi	r22, 0x00	; 0
    21be:	70 e0       	ldi	r23, 0x00	; 0
    21c0:	e4 2a       	or	r14, r20
    21c2:	f5 2a       	or	r15, r21
    21c4:	06 2b       	or	r16, r22
    21c6:	17 2b       	or	r17, r23
                if (bar_pos>0) bitmap = (bitmap<<1);
    21c8:	1d 14       	cp	r1, r13
    21ca:	24 f4       	brge	.+8      	; 0x21d4 <RTC_DowTimerGetHourBar+0x76>
    21cc:	ee 0c       	add	r14, r14
    21ce:	ff 1c       	adc	r15, r15
    21d0:	00 1f       	adc	r16, r16
    21d2:	11 1f       	adc	r17, r17
                bar_pos--; 
    21d4:	da 94       	dec	r13
    21d6:	cc 97       	sbiw	r24, 0x3c	; 60
            time = (table_time&0xfff)-1;
        } else {
            time = -1;
        }
        {
            while (((int16_t)(bar_pos))*60 > time) {            
    21d8:	c8 17       	cp	r28, r24
    21da:	d9 07       	cpc	r29, r25
    21dc:	4c f3       	brlt	.-46     	; 0x21b0 <RTC_DowTimerGetHourBar+0x52>
int32_t RTC_DowTimerGetHourBar(uint8_t dow) {
    int16_t time=24*60;
    int8_t bar_pos=23;
    uint32_t bitmap=0;
    
    while(time>0) {
    21de:	1c 16       	cp	r1, r28
    21e0:	1d 06       	cpc	r1, r29
    21e2:	5c f2       	brlt	.-106    	; 0x217a <RTC_DowTimerGetHourBar+0x1c>
                bar_pos--; 
            }
        }
    }
    return bitmap;  
}
    21e4:	b7 01       	movw	r22, r14
    21e6:	c8 01       	movw	r24, r16
    21e8:	cd b7       	in	r28, 0x3d	; 61
    21ea:	de b7       	in	r29, 0x3e	; 62
    21ec:	e8 e0       	ldi	r30, 0x08	; 8
    21ee:	0c 94 d0 1d 	jmp	0x3ba0	; 0x3ba0 <__epilogue_restores__+0x14>

000021f2 <RTC_AddOneSecond>:
{
#ifdef RTC_TICKS
    RTC_Ticks++;          // overflow every 136 Years
#endif
#if (RFM==1)
    RTC.pkt_cnt=0;
    21f2:	10 92 11 01 	sts	0x0111, r1
#endif
	if (++RTC.ss >= 60) {
    21f6:	80 91 0f 01 	lds	r24, 0x010F
    21fa:	8f 5f       	subi	r24, 0xFF	; 255
    21fc:	80 93 0f 01 	sts	0x010F, r24
    2200:	8c 33       	cpi	r24, 0x3C	; 60
    2202:	08 f4       	brcc	.+2      	; 0x2206 <RTC_AddOneSecond+0x14>
    2204:	82 c0       	rjmp	.+260    	; 0x230a <RTC_AddOneSecond+0x118>
		RTC.ss = 0;
    2206:	10 92 0f 01 	sts	0x010F, r1
		// notify com.c about the changed minute
		if (++RTC.mm >= 60) {
    220a:	80 91 0e 01 	lds	r24, 0x010E
    220e:	8f 5f       	subi	r24, 0xFF	; 255
    2210:	80 93 0e 01 	sts	0x010E, r24
    2214:	8c 33       	cpi	r24, 0x3C	; 60
    2216:	08 f4       	brcc	.+2      	; 0x221a <RTC_AddOneSecond+0x28>
    2218:	78 c0       	rjmp	.+240    	; 0x230a <RTC_AddOneSecond+0x118>
			RTC.mm = 0;
    221a:	10 92 0e 01 	sts	0x010E, r1
			// add one hour
			if (++RTC.hh >= 24) {
    221e:	80 91 0d 01 	lds	r24, 0x010D
    2222:	8f 5f       	subi	r24, 0xFF	; 255
    2224:	80 93 0d 01 	sts	0x010D, r24
    2228:	88 31       	cpi	r24, 0x18	; 24
    222a:	08 f4       	brcc	.+2      	; 0x222e <RTC_AddOneSecond+0x3c>
    222c:	43 c0       	rjmp	.+134    	; 0x22b4 <RTC_AddOneSecond+0xc2>
				RTC.hh = 0;
    222e:	10 92 0d 01 	sts	0x010D, r1
 *  \returns number of days for actual month (1-12) and year (0-255: 2000-2255)
 *
 ******************************************************************************/
static uint8_t RTC_DaysOfMonth()
{
    uint8_t dom = pgm_read_byte(&RTC_DayOfMonthTablePrgMem[RTC.MM-1]);
    2232:	20 91 0b 01 	lds	r18, 0x010B
    2236:	e2 2f       	mov	r30, r18
    2238:	f0 e0       	ldi	r31, 0x00	; 0
    223a:	e5 56       	subi	r30, 0x65	; 101
    223c:	fe 4f       	sbci	r31, 0xFE	; 254
    223e:	34 91       	lpm	r19, Z+
    if ((RTC.MM == 2)&&(!RTC_NoLeapyear()))
    2240:	22 30       	cpi	r18, 0x02	; 2
    2242:	41 f4       	brne	.+16     	; 0x2254 <RTC_AddOneSecond+0x62>
    2244:	80 91 0a 01 	lds	r24, 0x010A
    2248:	90 e0       	ldi	r25, 0x00	; 0
    224a:	83 70       	andi	r24, 0x03	; 3
    224c:	90 70       	andi	r25, 0x00	; 0
    224e:	89 2b       	or	r24, r25
    2250:	09 f4       	brne	.+2      	; 0x2254 <RTC_AddOneSecond+0x62>
    2252:	3d e1       	ldi	r19, 0x1D	; 29
static void RTC_AddOneDay(void)
{
    uint8_t dom;
    // How many day has actual month
    dom = RTC_DaysOfMonth();
    if (++RTC.DD > dom) {                   // Next Month
    2254:	80 91 0c 01 	lds	r24, 0x010C
    2258:	8f 5f       	subi	r24, 0xFF	; 255
    225a:	80 93 0c 01 	sts	0x010C, r24
    225e:	38 17       	cp	r19, r24
    2260:	90 f4       	brcc	.+36     	; 0x2286 <RTC_AddOneSecond+0x94>
		RTC.DD = 1;
    2262:	91 e0       	ldi	r25, 0x01	; 1
    2264:	90 93 0c 01 	sts	0x010C, r25
		if (++RTC.MM > 12) {                    // Next year
    2268:	82 2f       	mov	r24, r18
    226a:	8f 5f       	subi	r24, 0xFF	; 255
    226c:	80 93 0b 01 	sts	0x010B, r24
    2270:	8d 30       	cpi	r24, 0x0D	; 13
    2272:	38 f0       	brcs	.+14     	; 0x2282 <RTC_AddOneSecond+0x90>
			RTC.MM = 1;
    2274:	90 93 0b 01 	sts	0x010B, r25
			RTC.YY++;
    2278:	80 91 0a 01 	lds	r24, 0x010A
    227c:	8f 5f       	subi	r24, 0xFF	; 255
    227e:	80 93 0a 01 	sts	0x010A, r24
		}
		// Clear Daylight saving Flag
        RTC_DS=0;
    2282:	10 92 11 03 	sts	0x0311, r1
	}
    // next day of week
    RTC.DOW = (RTC.DOW %7)+1; // Monday = 1 Sat=7
    2286:	80 91 10 01 	lds	r24, 0x0110
    228a:	67 e0       	ldi	r22, 0x07	; 7
    228c:	0e 94 2d 1d 	call	0x3a5a	; 0x3a5a <__udivmodqi4>
    2290:	9f 5f       	subi	r25, 0xFF	; 255
    2292:	90 93 10 01 	sts	0x0110, r25
	#if !defined(MASTER_CONFIG_H)
        // update hourbar
	   menu_update_hourbar((config.timer_mode==1)?RTC.DOW:0);
    2296:	80 91 76 03 	lds	r24, 0x0376
    229a:	81 30       	cpi	r24, 0x01	; 1
    229c:	09 f0       	breq	.+2      	; 0x22a0 <RTC_AddOneSecond+0xae>
    229e:	90 e0       	ldi	r25, 0x00	; 0
void menu_view(bool update);

extern uint32_t hourbar_buff;

static inline void menu_update_hourbar(uint8_t dow) {
    hourbar_buff = RTC_DowTimerGetHourBar(dow);
    22a0:	89 2f       	mov	r24, r25
    22a2:	5d df       	rcall	.-326    	; 0x215e <RTC_DowTimerGetHourBar>
    22a4:	60 93 86 03 	sts	0x0386, r22
    22a8:	70 93 87 03 	sts	0x0387, r23
    22ac:	80 93 88 03 	sts	0x0388, r24
    22b0:	90 93 89 03 	sts	0x0389, r25
			if (++RTC.hh >= 24) {
				RTC.hh = 0;
				RTC_AddOneDay();
			}
			// start of summertime: March, 2:00:00 ?
			if ((RTC.MM==3)&&(RTC.hh==2)){
    22b4:	90 91 0b 01 	lds	r25, 0x010B
    22b8:	93 30       	cpi	r25, 0x03	; 3
    22ba:	79 f4       	brne	.+30     	; 0x22da <RTC_AddOneSecond+0xe8>
    22bc:	80 91 0d 01 	lds	r24, 0x010D
    22c0:	82 30       	cpi	r24, 0x02	; 2
    22c2:	19 f5       	brne	.+70     	; 0x230a <RTC_AddOneSecond+0x118>
 *  \returns \ref true if actual date is last sunday in march or october
 *
 ******************************************************************************/
static bool RTC_IsLastSunday(void)
{
    if (RTC.DOW != 7){ // sunday ?
    22c4:	80 91 10 01 	lds	r24, 0x0110
    22c8:	87 30       	cpi	r24, 0x07	; 7
    22ca:	f9 f4       	brne	.+62     	; 0x230a <RTC_AddOneSecond+0x118>
				RTC_AddOneDay();
			}
			// start of summertime: March, 2:00:00 ?
			if ((RTC.MM==3)&&(RTC.hh==2)){
                // Last Sunday ?
                if (RTC_IsLastSunday()){
    22cc:	80 91 0c 01 	lds	r24, 0x010C
    22d0:	89 31       	cpi	r24, 0x19	; 25
    22d2:	d8 f0       	brcs	.+54     	; 0x230a <RTC_AddOneSecond+0x118>
                    RTC.hh++; // 2:00 -> 3:00
    22d4:	90 93 0d 01 	sts	0x010D, r25
    22d8:	08 95       	ret
                }
            }
			// end of summertime: October, 03:00, RTC_DS == 0
			if ((RTC.MM==10)&&(RTC.hh==3)&&(RTC_DS==0)){
    22da:	9a 30       	cpi	r25, 0x0A	; 10
    22dc:	b1 f4       	brne	.+44     	; 0x230a <RTC_AddOneSecond+0x118>
    22de:	80 91 0d 01 	lds	r24, 0x010D
    22e2:	83 30       	cpi	r24, 0x03	; 3
    22e4:	91 f4       	brne	.+36     	; 0x230a <RTC_AddOneSecond+0x118>
    22e6:	80 91 11 03 	lds	r24, 0x0311
    22ea:	88 23       	and	r24, r24
    22ec:	71 f4       	brne	.+28     	; 0x230a <RTC_AddOneSecond+0x118>
 *  \returns \ref true if actual date is last sunday in march or october
 *
 ******************************************************************************/
static bool RTC_IsLastSunday(void)
{
    if (RTC.DOW != 7){ // sunday ?
    22ee:	80 91 10 01 	lds	r24, 0x0110
    22f2:	87 30       	cpi	r24, 0x07	; 7
    22f4:	51 f4       	brne	.+20     	; 0x230a <RTC_AddOneSecond+0x118>
                }
            }
			// end of summertime: October, 03:00, RTC_DS == 0
			if ((RTC.MM==10)&&(RTC.hh==3)&&(RTC_DS==0)){
                // Last Sunday ?
                if (RTC_IsLastSunday()){
    22f6:	80 91 0c 01 	lds	r24, 0x010C
    22fa:	88 31       	cpi	r24, 0x18	; 24
    22fc:	30 f0       	brcs	.+12     	; 0x230a <RTC_AddOneSecond+0x118>
                    RTC.hh--; // 3:00 -> 2:00
    22fe:	82 e0       	ldi	r24, 0x02	; 2
    2300:	80 93 0d 01 	sts	0x010D, r24
                    RTC_DS=1;
    2304:	81 e0       	ldi	r24, 0x01	; 1
    2306:	80 93 11 03 	sts	0x0311, r24
    230a:	08 95       	ret

0000230c <RTC_SetDayOfWeek>:
	31+28+31+30+31+30+31+31+30,
    31+28+31+30+31+30+31+31+30+31,
	31+28+31+30+31+30+31+31+30+31+30};

static void RTC_SetDayOfWeek(void)
{
    230c:	0f 93       	push	r16
    230e:	1f 93       	push	r17
    2310:	cf 93       	push	r28
    2312:	df 93       	push	r29
    uint16_t day_of_year;
    uint16_t tmp_dow;

    // Day of year
    day_of_year = pgm_read_word(&(daysInYear[RTC.MM-1])) + RTC.DD;
    2314:	90 91 0b 01 	lds	r25, 0x010B
    2318:	e9 2f       	mov	r30, r25
    231a:	f0 e0       	ldi	r31, 0x00	; 0
    231c:	ee 0f       	add	r30, r30
    231e:	ff 1f       	adc	r31, r31
    2320:	ea 55       	subi	r30, 0x5A	; 90
    2322:	fe 4f       	sbci	r31, 0xFE	; 254
    2324:	c5 91       	lpm	r28, Z+
    2326:	d4 91       	lpm	r29, Z+
    2328:	80 91 0c 01 	lds	r24, 0x010C
    232c:	c8 0f       	add	r28, r24
    232e:	d1 1d       	adc	r29, r1
    if (RTC.MM > 2) { // february
    2330:	93 30       	cpi	r25, 0x03	; 3
    2332:	40 f0       	brcs	.+16     	; 0x2344 <RTC_SetDayOfWeek+0x38>
        if (! RTC_NoLeapyear() ){
    2334:	80 91 0a 01 	lds	r24, 0x010A
    2338:	90 e0       	ldi	r25, 0x00	; 0
    233a:	83 70       	andi	r24, 0x03	; 3
    233c:	90 70       	andi	r25, 0x00	; 0
    233e:	89 2b       	or	r24, r25
    2340:	09 f4       	brne	.+2      	; 0x2344 <RTC_SetDayOfWeek+0x38>
            day_of_year ++;
    2342:	21 96       	adiw	r28, 0x01	; 1
        }
    }
    // calc weekday
    tmp_dow = RTC.YY + ((RTC.YY-1) / 4) - ((RTC.YY-1) / 100) + day_of_year;
    2344:	e0 91 0a 01 	lds	r30, 0x010A
    2348:	f0 e0       	ldi	r31, 0x00	; 0
    234a:	8f 01       	movw	r16, r30
    234c:	01 50       	subi	r16, 0x01	; 1
    234e:	10 40       	sbci	r17, 0x00	; 0
    // set DOW
    RTC.DOW = (uint8_t) ((tmp_dow + 5) % 7) +1;
    2350:	c8 01       	movw	r24, r16
    2352:	64 e0       	ldi	r22, 0x04	; 4
    2354:	70 e0       	ldi	r23, 0x00	; 0
    2356:	0e 94 5a 1d 	call	0x3ab4	; 0x3ab4 <__divmodhi4>
    235a:	9b 01       	movw	r18, r22
    235c:	c8 01       	movw	r24, r16
    235e:	6c e9       	ldi	r22, 0x9C	; 156
    2360:	7f ef       	ldi	r23, 0xFF	; 255
    2362:	0e 94 5a 1d 	call	0x3ab4	; 0x3ab4 <__divmodhi4>
    2366:	26 0f       	add	r18, r22
    2368:	37 1f       	adc	r19, r23
    236a:	2e 0f       	add	r18, r30
    236c:	3f 1f       	adc	r19, r31
    236e:	2b 5f       	subi	r18, 0xFB	; 251
    2370:	3f 4f       	sbci	r19, 0xFF	; 255
    2372:	c9 01       	movw	r24, r18
    2374:	8c 0f       	add	r24, r28
    2376:	9d 1f       	adc	r25, r29
    2378:	67 e0       	ldi	r22, 0x07	; 7
    237a:	70 e0       	ldi	r23, 0x00	; 0
    237c:	0e 94 46 1d 	call	0x3a8c	; 0x3a8c <__udivmodhi4>
    2380:	98 2f       	mov	r25, r24
    2382:	9f 5f       	subi	r25, 0xFF	; 255
    2384:	90 93 10 01 	sts	0x0110, r25
    
    #if !defined(MASTER_CONFIG_H)
   	    menu_update_hourbar((config.timer_mode==1)?RTC.DOW:0);
    2388:	80 91 76 03 	lds	r24, 0x0376
    238c:	81 30       	cpi	r24, 0x01	; 1
    238e:	09 f0       	breq	.+2      	; 0x2392 <RTC_SetDayOfWeek+0x86>
    2390:	90 e0       	ldi	r25, 0x00	; 0
    2392:	89 2f       	mov	r24, r25
    2394:	e4 de       	rcall	.-568    	; 0x215e <RTC_DowTimerGetHourBar>
    2396:	60 93 86 03 	sts	0x0386, r22
    239a:	70 93 87 03 	sts	0x0387, r23
    239e:	80 93 88 03 	sts	0x0388, r24
    23a2:	90 93 89 03 	sts	0x0389, r25
    #endif    
}
    23a6:	df 91       	pop	r29
    23a8:	cf 91       	pop	r28
    23aa:	1f 91       	pop	r17
    23ac:	0f 91       	pop	r16
    23ae:	08 95       	ret

000023b0 <RTC_SetYear>:
 *  set actual date
 *  \param year new value for year
 ******************************************************************************/
void RTC_SetYear(uint8_t year)
{
    RTC.YY = year;
    23b0:	80 93 0a 01 	sts	0x010A, r24
    RTC_SetDayOfWeek();
}
    23b4:	ab cf       	rjmp	.-170    	; 0x230c <RTC_SetDayOfWeek>

000023b6 <RTC_SetMonth>:
 *  set actual date
 *  \param month new value for month
 ******************************************************************************/
void RTC_SetMonth(int8_t month)
{
    RTC.MM = (uint8_t)(month+(-1+12))%12 + 1;
    23b6:	85 5f       	subi	r24, 0xF5	; 245
    23b8:	6c e0       	ldi	r22, 0x0C	; 12
    23ba:	0e 94 2d 1d 	call	0x3a5a	; 0x3a5a <__udivmodqi4>
    23be:	9f 5f       	subi	r25, 0xFF	; 255
    23c0:	90 93 0b 01 	sts	0x010B, r25
    RTC_SetDayOfWeek();
}
    23c4:	a3 cf       	rjmp	.-186    	; 0x230c <RTC_SetDayOfWeek>

000023c6 <RTC_SetDay>:
 *******************************************************************************
 *  set actual date
 *  \param day new value for day
 ******************************************************************************/
void RTC_SetDay(int8_t day)
{
    23c6:	28 2f       	mov	r18, r24
 *  \returns number of days for actual month (1-12) and year (0-255: 2000-2255)
 *
 ******************************************************************************/
static uint8_t RTC_DaysOfMonth()
{
    uint8_t dom = pgm_read_byte(&RTC_DayOfMonthTablePrgMem[RTC.MM-1]);
    23c8:	80 91 0b 01 	lds	r24, 0x010B
    23cc:	e8 2f       	mov	r30, r24
    23ce:	f0 e0       	ldi	r31, 0x00	; 0
    23d0:	e5 56       	subi	r30, 0x65	; 101
    23d2:	fe 4f       	sbci	r31, 0xFE	; 254
    23d4:	64 91       	lpm	r22, Z+
    if ((RTC.MM == 2)&&(!RTC_NoLeapyear()))
    23d6:	82 30       	cpi	r24, 0x02	; 2
    23d8:	41 f4       	brne	.+16     	; 0x23ea <RTC_SetDay+0x24>
    23da:	80 91 0a 01 	lds	r24, 0x010A
    23de:	90 e0       	ldi	r25, 0x00	; 0
    23e0:	83 70       	andi	r24, 0x03	; 3
    23e2:	90 70       	andi	r25, 0x00	; 0
    23e4:	89 2b       	or	r24, r25
    23e6:	09 f4       	brne	.+2      	; 0x23ea <RTC_SetDay+0x24>
    23e8:	6d e1       	ldi	r22, 0x1D	; 29
 *  \param day new value for day
 ******************************************************************************/
void RTC_SetDay(int8_t day)
{
    uint8_t day_in_m = RTC_DaysOfMonth();
    RTC.DD = (uint8_t)(day+(-1+day_in_m))%day_in_m + 1;
    23ea:	21 50       	subi	r18, 0x01	; 1
    23ec:	82 2f       	mov	r24, r18
    23ee:	86 0f       	add	r24, r22
    23f0:	0e 94 2d 1d 	call	0x3a5a	; 0x3a5a <__udivmodqi4>
    23f4:	9f 5f       	subi	r25, 0xFF	; 255
    23f6:	90 93 0c 01 	sts	0x010C, r25
    RTC_SetDayOfWeek();
}
    23fa:	88 cf       	rjmp	.-240    	; 0x230c <RTC_SetDayOfWeek>

000023fc <RTC_Init>:
 *  \param  pFunc   pointer to callback function for DOW timer
 ******************************************************************************/
void RTC_Init(void)
{
    #if !defined(MASTER_CONFIG_H)
        TIMSK2 &= ~(1<<TOIE2);              // disable OCIE2A and TOIE2
    23fc:	80 91 70 00 	lds	r24, 0x0070
    2400:	8e 7f       	andi	r24, 0xFE	; 254
    2402:	80 93 70 00 	sts	0x0070, r24
        ASSR = (1<<AS2);                    // Timer2 asynchronous operation
    2406:	88 e0       	ldi	r24, 0x08	; 8
    2408:	80 93 b6 00 	sts	0x00B6, r24
        TCNT2 = 0;                          // clear TCNT2A
    240c:	10 92 b2 00 	sts	0x00B2, r1
        TCCR2A |= TCCR2A_INIT;    // select precaler: 32.768 kHz / 128 =
    2410:	80 91 b0 00 	lds	r24, 0x00B0
    2414:	85 60       	ori	r24, 0x05	; 5
    2416:	80 93 b0 00 	sts	0x00B0, r24
                                            // => 1 sec between each overflow
    	
    	// wait for TCN2UB and TCR2UB to be cleared
        while((ASSR & (_BV(TCN2UB)|_BV(TCR2UB))) != 0);
    241a:	80 91 b6 00 	lds	r24, 0x00B6
    241e:	85 70       	andi	r24, 0x05	; 5
    2420:	e1 f7       	brne	.-8      	; 0x241a <RTC_Init+0x1e>
    
        TIFR2 = 0xFF;                       // clear interrupt-flags
    2422:	8f ef       	ldi	r24, 0xFF	; 255
    2424:	87 bb       	out	0x17, r24	; 23
        TIMSK2 |= (1<<TOIE2);               // enable Timer2 overflow interrupt
    2426:	80 91 70 00 	lds	r24, 0x0070
    242a:	81 60       	ori	r24, 0x01	; 1
    242c:	80 93 70 00 	sts	0x0070, r24

    // day of week
    RTC_SetDayOfWeek();
    
    //! \note OCR2A register and interrupt is used in \ref keyboard.c
}
    2430:	6d cf       	rjmp	.-294    	; 0x230c <RTC_SetDayOfWeek>

00002432 <RTC_DowTimerGet>:
 *      - 1 minute intervals supported
 *      - to deactivate timer: set value 0xfff
 *
 ******************************************************************************/
uint16_t RTC_DowTimerGet(rtc_dow_t dow, uint8_t slot, timermode_t *timermode)
{
    2432:	0f 93       	push	r16
    2434:	1f 93       	push	r17
    2436:	8a 01       	movw	r16, r20
    // to table format see to \ref ee_timers
    uint16_t raw=eeprom_timers_read_raw(timers_get_raw_index(dow,slot));
    2438:	88 0f       	add	r24, r24
    243a:	88 0f       	add	r24, r24
    243c:	88 0f       	add	r24, r24
    243e:	86 0f       	add	r24, r22
    2440:	b5 d4       	rcall	.+2410   	; 0x2dac <eeprom_timers_read_raw>
    2442:	9c 01       	movw	r18, r24
    *timermode = (timermode_t) (raw >> 12);
    2444:	83 2f       	mov	r24, r19
    2446:	82 95       	swap	r24
    2448:	8f 70       	andi	r24, 0x0F	; 15
    244a:	f8 01       	movw	r30, r16
    244c:	80 83       	st	Z, r24
    244e:	3f 70       	andi	r19, 0x0F	; 15
    return raw & 0xfff;
}
    2450:	c9 01       	movw	r24, r18
    2452:	1f 91       	pop	r17
    2454:	0f 91       	pop	r16
    2456:	08 95       	ret

00002458 <RTC_DowTimerSet>:
 *      - 1 minute intervals supported
 *      - to deactivate timer: set value 0xfff
 *
 ******************************************************************************/
bool RTC_DowTimerSet(rtc_dow_t dow, uint8_t slot, uint16_t time, timermode_t timermode)
{
    2458:	96 2f       	mov	r25, r22
    if (dow>=8) return false;
    245a:	88 30       	cpi	r24, 0x08	; 8
    245c:	b8 f4       	brcc	.+46     	; 0x248c <RTC_DowTimerSet+0x34>
    if (slot>=RTC_TIMERS_PER_DOW) return false;
    245e:	68 30       	cpi	r22, 0x08	; 8
    2460:	a8 f4       	brcc	.+42     	; 0x248c <RTC_DowTimerSet+0x34>
    if (timermode>temperature3) return false;
    2462:	24 30       	cpi	r18, 0x04	; 4
    2464:	98 f4       	brcc	.+38     	; 0x248c <RTC_DowTimerSet+0x34>
    if (time>=60*25) time=0xfff;
    2466:	35 e0       	ldi	r19, 0x05	; 5
    2468:	4c 3d       	cpi	r20, 0xDC	; 220
    246a:	53 07       	cpc	r21, r19
    246c:	10 f0       	brcs	.+4      	; 0x2472 <RTC_DowTimerSet+0x1a>
    246e:	4f ef       	ldi	r20, 0xFF	; 255
    2470:	5f e0       	ldi	r21, 0x0F	; 15
    // to table format see to \ref ee_timers
    eeprom_timers_write(dow,slot,time | ((uint16_t)timermode<<12));
    2472:	88 0f       	add	r24, r24
    2474:	88 0f       	add	r24, r24
    2476:	88 0f       	add	r24, r24
    2478:	72 2f       	mov	r23, r18
    247a:	72 95       	swap	r23
    247c:	70 7f       	andi	r23, 0xF0	; 240
    247e:	60 e0       	ldi	r22, 0x00	; 0
    2480:	64 2b       	or	r22, r20
    2482:	75 2b       	or	r23, r21
    2484:	89 0f       	add	r24, r25
    2486:	b8 d4       	rcall	.+2416   	; 0x2df8 <eeprom_timers_write_raw>
    2488:	81 e0       	ldi	r24, 0x01	; 1
    248a:	08 95       	ret
    return true;
    248c:	80 e0       	ldi	r24, 0x00	; 0
}
    248e:	08 95       	ret

00002490 <main>:

    //! Calibrate the internal RC Oszillator
    //! \todo test calibrate_rco();

    //! set Clock to 4 Mhz
    CLKPR = (1<<CLKPCE);            // prescaler change enable
    2490:	90 e8       	ldi	r25, 0x80	; 128
    2492:	90 93 61 00 	sts	0x0061, r25
    CLKPR = (1<<CLKPS0);            // prescaler = 2 (internal RC runs @ 8MHz)
    2496:	81 e0       	ldi	r24, 0x01	; 1
    2498:	80 93 61 00 	sts	0x0061, r24

    //! Disable Analog Comparator (power save)
    ACSR = (1<<ACD);
    249c:	90 bf       	out	0x30, r25	; 48

    //! Disable Digital input on PF0-7 (power save)
    DIDR0 = 0xFF;
    249e:	8f ef       	ldi	r24, 0xFF	; 255
    24a0:	80 93 7e 00 	sts	0x007E, r24

    //! Power reduction mode
    power_down_ADC();
    24a4:	8d e0       	ldi	r24, 0x0D	; 13
    24a6:	80 93 64 00 	sts	0x0064, r24

    //! digital I/O port direction
    DDRG = (1<<PG3)|(1<<PG4); // PG3, PG4 Motor out
    24aa:	88 e1       	ldi	r24, 0x18	; 24
    24ac:	83 bb       	out	0x13, r24	; 19
    //! enable pullup on all inputs (keys and m_wheel)
    //! ATTENTION: PB0 & PB6 is input, but we will select it only for read
#if THERMOTRONIC==1
	PORTB = (1<<PB0)|(1<<PB1)|(1<<PB2)|(0<<PB4)|(0<<PB5);
#else
    PORTB = (0<<PB0)|(1<<PB1)|(1<<PB2)|(1<<PB3)|(0<<PB6);
    24ae:	8e e0       	ldi	r24, 0x0E	; 14
    24b0:	85 b9       	out	0x05, r24	; 5
    DDRB = (1<<PB0)|(1<<PB4)|(1<<PB7)|(1<<PB6); // PB4, PB7 Motor out
    24b2:	81 ed       	ldi	r24, 0xD1	; 209
    24b4:	84 b9       	out	0x04, r24	; 4
	//PORTE =                            (1<<PE1)|(1<<PE0); // TXD | RXD
	DDRF  =          (1<<PF6)|(1<<PF5)|(1<<PF4)|(1<<PF3); // RFMSDI | RFMNSEL | RFMSCK | ACTTEMPSENS
    PORTF = (1<<PF7)|         (1<<PF5); // JTAGTDI | RFMNSEL;

#elif (RFM_WIRE_JD_INTERNAL == 1)
    DDRE  = (1<<PE3)|(1<<PE1);  // PE3  activate lighteye
    24b6:	8a e0       	ldi	r24, 0x0A	; 10
    24b8:	8d b9       	out	0x0d, r24	; 13
	PORTE = (1<<PE2)|(1<<PE1)|(1<<PE0);  // TXD | RXD(pullup)
    24ba:	87 e0       	ldi	r24, 0x07	; 7
    24bc:	8e b9       	out	0x0e, r24	; 14
    DDRF  = (1<<PF0)|(1<<PF1)|(1<<PF3);  // RFMSDI | RFMSCK | PF3  activate tempsensor
    24be:	8b e0       	ldi	r24, 0x0B	; 11
    24c0:	80 bb       	out	0x10, r24	; 16
    PORTF = 0xf0;
    24c2:	80 ef       	ldi	r24, 0xF0	; 240
    24c4:	81 bb       	out	0x11, r24	; 17
    PORTA = (1<<PA3); // RFMnSEL
    24c6:	88 e0       	ldi	r24, 0x08	; 8
    24c8:	82 b9       	out	0x02, r24	; 2
    DDRA = (1<<PA3); // RFMnSEL
    24ca:	81 b9       	out	0x01, r24	; 1
	PCMSK0=(1<<PCINT1);
    //! PCMSK1 for keyactions
    PCMSK1 = (1<<PCINT9)|(1<<PCINT10)|(1<<PCINT8)|(1<<PCINT12);
#else
    //! PCMSK1 for keyactions
    PCMSK1 = (1<<PCINT9)|(1<<PCINT10)|(1<<PCINT11)|(1<<PCINT13);
    24cc:	8e e2       	ldi	r24, 0x2E	; 46
    24ce:	80 93 6c 00 	sts	0x006C, r24
#endif

    //! activate PCINT0 + PCINT1
    EIMSK = (1<<PCIE1)|(1<<PCIE0);
    24d2:	80 ec       	ldi	r24, 0xC0	; 192
    24d4:	8d bb       	out	0x1d, r24	; 29

    //! Initialize the RTC
    RTC_Init();
    24d6:	92 df       	rcall	.-220    	; 0x23fc <RTC_Init>

	// press all keys on boot reload default eeprom values
    eeprom_config_init((PINB & (KBI_PROG | KBI_C | KBI_AUTO))==0);
    24d8:	83 b1       	in	r24, 0x03	; 3
    24da:	90 e0       	ldi	r25, 0x00	; 0
    24dc:	8e 70       	andi	r24, 0x0E	; 14
    24de:	09 f4       	brne	.+2      	; 0x24e2 <main+0x52>
    24e0:	91 e0       	ldi	r25, 0x01	; 1
    24e2:	89 2f       	mov	r24, r25
    24e4:	39 d4       	rcall	.+2162   	; 0x2d58 <eeprom_config_init>

#if RFM
	crypto_init();
    24e6:	f7 da       	rcall	.-2578   	; 0x1ad6 <crypto_init>
#endif

    //! Initialize the motor
    MOTOR_Init();
    24e8:	81 e0       	ldi	r24, 0x01	; 1
    24ea:	0e 94 84 04 	call	0x908	; 0x908 <MOTOR_updateCalibration>

    //1 Initialize the LCD
    LCD_Init();
    24ee:	0e 94 16 1b 	call	0x362c	; 0x362c <LCD_Init>

#if RFM
	RFM_init();
    24f2:	c5 db       	rcall	.-2166   	; 0x1c7e <RFM_init>
	RFM_OFF();
    24f4:	81 e0       	ldi	r24, 0x01	; 1
    24f6:	92 e8       	ldi	r25, 0x82	; 130
    24f8:	ac db       	rcall	.-2216   	; 0x1c52 <rfm_spi16>
#endif

	// init keyboard
    state_wheel_prev = ~PINB & (KBI_ROT1 | KBI_ROT2);
    24fa:	83 b1       	in	r24, 0x03	; 3
    24fc:	80 95       	com	r24
    24fe:	80 76       	andi	r24, 0x60	; 96
    2500:	80 93 12 03 	sts	0x0312, r24
// __attribute__((noreturn)) mean that we not need prologue and epilogue for main()
		{
    //! initalization
    init();

	task=0;
    2504:	1e ba       	out	0x1e, r1	; 30

    //! Enable interrupts
    sei();
    2506:	78 94       	sei

    /* check EEPROM layout */
    if (EEPROM_read((uint16_t)&ee_layout)!=EE_LAYOUT) {
    2508:	83 e0       	ldi	r24, 0x03	; 3
    250a:	90 e0       	ldi	r25, 0x00	; 0
    250c:	ca d3       	rcall	.+1940   	; 0x2ca2 <EEPROM_read>
    250e:	81 31       	cpi	r24, 0x11	; 17
    2510:	39 f0       	breq	.+14     	; 0x2520 <main+0x90>
        LCD_PrintStringID(LCD_STRING_EEPr,LCD_MODE_ON);
    2512:	83 e1       	ldi	r24, 0x13	; 19
    2514:	63 e0       	ldi	r22, 0x03	; 3
    2516:	0e 94 75 1c 	call	0x38ea	; 0x38ea <LCD_PrintStringID>
        task_lcd_update();
    251a:	0e 94 c2 1c 	call	0x3984	; 0x3984 <task_lcd_update>
    251e:	ff cf       	rjmp	.-2      	; 0x251e <main+0x8e>
        for(;;) {;}  //fatal error, stop startup
    }
#if THERMOTRONIC != 1
	COM_init();
    2520:	b9 d8       	rcall	.-3726   	; 0x1694 <COM_init>
#endif
    #if RFM
        // enable persistent RX for initial sync
        RFM_SPI_16(RFM_FIFO_IT(8) | RFM_FIFO_FF | RFM_FIFO_DR);
    2522:	83 e8       	ldi	r24, 0x83	; 131
    2524:	9a ec       	ldi	r25, 0xCA	; 202
    2526:	95 db       	rcall	.-2262   	; 0x1c52 <rfm_spi16>
        RFM_SPI_16(RFM_LOW_BATT_DETECT_D_10MHZ);
    2528:	80 ee       	ldi	r24, 0xE0	; 224
    252a:	90 ec       	ldi	r25, 0xC0	; 192
    252c:	92 db       	rcall	.-2268   	; 0x1c52 <rfm_spi16>
        RFM_RX_ON();
    252e:	89 ed       	ldi	r24, 0xD9	; 217
    2530:	92 e8       	ldi	r25, 0x82	; 130
    2532:	8f db       	rcall	.-2274   	; 0x1c52 <rfm_spi16>
		RFM_INT_EN(); // enable RFM interrupt
    2534:	80 91 6b 00 	lds	r24, 0x006B
    2538:	80 64       	ori	r24, 0x40	; 64
    253a:	80 93 6b 00 	sts	0x006B, r24
    253e:	0e 94 da 02 	call	0x5b4	; 0x5b4 <__vector_2>
    	rfm_mode = rfmmode_rx;
    2542:	84 e0       	ldi	r24, 0x04	; 4
    2544:	80 93 2a 02 	sts	0x022A, r24
			DEBUG_BEFORE_SLEEP();
			asm volatile ("sei");	//  sequence from ATMEL datasheet chapter 6.8.
			asm volatile ("sleep");
			asm volatile ("nop");
			DEBUG_AFTER_SLEEP();
			SMCR = (1<<SM1)|(1<<SM0)|(0<<SE); // Power-save mode
    2548:	26 e0       	ldi	r18, 0x06	; 6
    254a:	e2 2e       	mov	r14, r18
          ! task &&
          ((ASSR & (_BV(OCR2UB)|_BV(TCN2UB)|_BV(TCR2UB))) == 0) // ATmega169 datasheet chapter 17.8.1
            ) {
  			// nothing to do, go to sleep
            if(timer0_need_clock() || RS_need_clock()) {
			    SMCR = (0<<SM1)|(0<<SM0)|(1<<SE); // Idle mode
    254c:	01 e0       	ldi	r16, 0x01	; 1
            } else {
    			if (sleep_with_ADC) {
    				SMCR = (0<<SM1)|(1<<SM0)|(1<<SE); // ADC noise reduction mode
				} else {
				    SMCR = (1<<SM1)|(1<<SM0)|(1<<SE); // Power-save mode
    254e:	97 e0       	ldi	r25, 0x07	; 7
    2550:	d9 2e       	mov	r13, r25
  			// nothing to do, go to sleep
            if(timer0_need_clock() || RS_need_clock()) {
			    SMCR = (0<<SM1)|(0<<SM0)|(1<<SE); // Idle mode
            } else {
    			if (sleep_with_ADC) {
    				SMCR = (0<<SM1)|(1<<SM0)|(1<<SE); // ADC noise reduction mode
    2552:	83 e0       	ldi	r24, 0x03	; 3
    2554:	f8 2e       	mov	r15, r24
    ****************************************************************************
    * main loop
    ***************************************************************************/
    for (;;){
		// go to sleep with ADC conversion start
		asm volatile ("cli");
    2556:	f8 94       	cli
        if (
    2558:	8e b3       	in	r24, 0x1e	; 30
    255a:	88 23       	and	r24, r24
    255c:	51 f5       	brne	.+84     	; 0x25b2 <main+0x122>
    255e:	80 91 b6 00 	lds	r24, 0x00B6
    2562:	90 e0       	ldi	r25, 0x00	; 0
    2564:	87 70       	andi	r24, 0x07	; 7
    2566:	90 70       	andi	r25, 0x00	; 0
    2568:	89 2b       	or	r24, r25
    256a:	19 f5       	brne	.+70     	; 0x25b2 <main+0x122>
          ! task &&
          ((ASSR & (_BV(OCR2UB)|_BV(TCN2UB)|_BV(TCR2UB))) == 0) // ATmega169 datasheet chapter 17.8.1
            ) {
  			// nothing to do, go to sleep
            if(timer0_need_clock() || RS_need_clock()) {
    256c:	84 b5       	in	r24, 0x24	; 36
    256e:	90 e0       	ldi	r25, 0x00	; 0
    2570:	87 70       	andi	r24, 0x07	; 7
    2572:	90 70       	andi	r25, 0x00	; 0
    2574:	89 2b       	or	r24, r25
    2576:	21 f4       	brne	.+8      	; 0x2580 <main+0xf0>
    2578:	80 91 c1 00 	lds	r24, 0x00C1
    257c:	88 71       	andi	r24, 0x18	; 24
    257e:	11 f0       	breq	.+4      	; 0x2584 <main+0xf4>
			    SMCR = (0<<SM1)|(0<<SM0)|(1<<SE); // Idle mode
    2580:	03 bf       	out	0x33, r16	; 51
    2582:	07 c0       	rjmp	.+14     	; 0x2592 <main+0x102>
            } else {
    			if (sleep_with_ADC) {
    2584:	80 91 37 02 	lds	r24, 0x0237
    2588:	88 23       	and	r24, r24
    258a:	11 f0       	breq	.+4      	; 0x2590 <main+0x100>
    				SMCR = (0<<SM1)|(1<<SM0)|(1<<SE); // ADC noise reduction mode
    258c:	f3 be       	out	0x33, r15	; 51
    258e:	01 c0       	rjmp	.+2      	; 0x2592 <main+0x102>
				} else {
				    SMCR = (1<<SM1)|(1<<SM0)|(1<<SE); // Power-save mode
    2590:	d3 be       	out	0x33, r13	; 51
                }
            }

			if (sleep_with_ADC) {
    2592:	80 91 37 02 	lds	r24, 0x0237
    2596:	88 23       	and	r24, r24
    2598:	39 f0       	breq	.+14     	; 0x25a8 <main+0x118>
				sleep_with_ADC=0;
    259a:	10 92 37 02 	sts	0x0237, r1
				// start conversions
		        ADCSRA |= (1<<ADSC);
    259e:	80 91 7a 00 	lds	r24, 0x007A
    25a2:	80 64       	ori	r24, 0x40	; 64
    25a4:	80 93 7a 00 	sts	0x007A, r24
			}

			DEBUG_BEFORE_SLEEP();
			asm volatile ("sei");	//  sequence from ATMEL datasheet chapter 6.8.
    25a8:	78 94       	sei
			asm volatile ("sleep");
    25aa:	88 95       	sleep
			asm volatile ("nop");
    25ac:	00 00       	nop
			DEBUG_AFTER_SLEEP();
			SMCR = (1<<SM1)|(1<<SM0)|(0<<SE); // Power-save mode
    25ae:	e3 be       	out	0x33, r14	; 51
    25b0:	01 c0       	rjmp	.+2      	; 0x25b4 <main+0x124>
		} else {
			asm volatile ("sei");
    25b2:	78 94       	sei
		}

		#if RFM
		  // RFM12
		  if (task & TASK_RFM) {
    25b4:	f7 9b       	sbis	0x1e, 7	; 30
    25b6:	0d c0       	rjmp	.+26     	; 0x25d2 <main+0x142>
			task &= ~TASK_RFM;
    25b8:	f7 98       	cbi	0x1e, 7	; 30

			if (rfm_mode == rfmmode_tx_done)
    25ba:	80 91 2a 02 	lds	r24, 0x022A
    25be:	83 30       	cpi	r24, 0x03	; 3
    25c0:	11 f4       	brne	.+4      	; 0x25c6 <main+0x136>
			{
                wirelessSendDone();
    25c2:	1f db       	rcall	.-2498   	; 0x1c02 <wirelessSendDone>
    25c4:	c8 cf       	rjmp	.-112    	; 0x2556 <main+0xc6>
			}
  			else if ((rfm_mode == rfmmode_rx) || (rfm_mode == rfmmode_rx_owf))
    25c6:	84 50       	subi	r24, 0x04	; 4
    25c8:	82 30       	cpi	r24, 0x02	; 2
    25ca:	08 f0       	brcs	.+2      	; 0x25ce <main+0x13e>
    25cc:	c4 cf       	rjmp	.-120    	; 0x2556 <main+0xc6>
  			{
  			    wirelessReceivePacket();
    25ce:	52 d9       	rcall	.-3420   	; 0x1874 <wirelessReceivePacket>
    25d0:	c2 cf       	rjmp	.-124    	; 0x2556 <main+0xc6>
			continue; // on most case we have only 1 task, improve time to sleep
		}
		#endif

        // update LCD task
		if (task & TASK_LCD) {
    25d2:	f3 9b       	sbis	0x1e, 3	; 30
    25d4:	04 c0       	rjmp	.+8      	; 0x25de <main+0x14e>
			task&=~TASK_LCD;
    25d6:	f3 98       	cbi	0x1e, 3	; 30
			task_lcd_update();
    25d8:	0e 94 c2 1c 	call	0x3984	; 0x3984 <task_lcd_update>
    25dc:	bc cf       	rjmp	.-136    	; 0x2556 <main+0xc6>
			continue; // on most case we have only 1 task, improve time to sleep
		}

		if (task & TASK_ADC) {
    25de:	f2 9b       	sbis	0x1e, 2	; 30
    25e0:	03 c0       	rjmp	.+6      	; 0x25e8 <main+0x158>
			task&=~TASK_ADC;
    25e2:	f2 98       	cbi	0x1e, 2	; 30
			if (task_ADC()==0) {
    25e4:	94 d2       	rcall	.+1320   	; 0x2b0e <task_ADC>
    25e6:	b7 cf       	rjmp	.-146    	; 0x2556 <main+0xc6>
            }
			continue; // on most case we have only 1 task, improve time to sleep
		}

        // communication
		if (task & TASK_COM) {
    25e8:	f6 9b       	sbis	0x1e, 6	; 30
    25ea:	04 c0       	rjmp	.+8      	; 0x25f4 <main+0x164>
			task&=~TASK_COM;
    25ec:	f6 98       	cbi	0x1e, 6	; 30
			COM_commad_parse();
    25ee:	0e 94 5f 0a 	call	0x14be	; 0x14be <COM_commad_parse>
    25f2:	b1 cf       	rjmp	.-158    	; 0x2556 <main+0xc6>
			continue; // on most case we have only 1 task, improve time to sleep
		}

        // motor stop
        if (task & TASK_MOTOR_STOP) {
    25f4:	f5 9b       	sbis	0x1e, 5	; 30
    25f6:	04 c0       	rjmp	.+8      	; 0x2600 <main+0x170>
            task&=~TASK_MOTOR_STOP;
    25f8:	f5 98       	cbi	0x1e, 5	; 30
            MOTOR_timer_stop();
    25fa:	0e 94 ee 03 	call	0x7dc	; 0x7dc <MOTOR_timer_stop>
    25fe:	ab cf       	rjmp	.-170    	; 0x2556 <main+0xc6>
			continue; // on most case we have only 1 task, improve time to sleep
        }

		//! check keyboard and set keyboards events
		if (task & TASK_KB) {
    2600:	f0 9b       	sbis	0x1e, 0	; 30
    2602:	02 c0       	rjmp	.+4      	; 0x2608 <main+0x178>
			task&=~TASK_KB;
    2604:	f0 98       	cbi	0x1e, 0	; 30
			task_keyboard();
    2606:	7e d1       	rcall	.+764    	; 0x2904 <task_keyboard>
		}

        if (task & TASK_RTC) {
    2608:	f1 9b       	sbis	0x1e, 1	; 30
    260a:	c2 c0       	rjmp	.+388    	; 0x2790 <main+0x300>
            task&=~TASK_RTC;
    260c:	f1 98       	cbi	0x1e, 1	; 30
			#if (HW_WINDOW_DETECTION)
				PORTE |= _BV(PE2); // enable pull-up
    260e:	72 9a       	sbi	0x0e, 2	; 14
			#endif
            if (RTC_timer_done&_BV(RTC_TIMER_RTC))
    2610:	80 91 2c 02 	lds	r24, 0x022C
    2614:	87 ff       	sbrs	r24, 7
    2616:	01 c0       	rjmp	.+2      	; 0x261a <main+0x18a>
            {
                RTC_AddOneSecond();
    2618:	ec dd       	rcall	.-1064   	; 0x21f2 <RTC_AddOneSecond>
            }
            if (RTC_timer_done&(_BV(RTC_TIMER_OVF)|_BV(RTC_TIMER_RTC)))
    261a:	90 91 2c 02 	lds	r25, 0x022C
    261e:	89 2f       	mov	r24, r25
    2620:	81 78       	andi	r24, 0x81	; 129
    2622:	09 f4       	brne	.+2      	; 0x2626 <main+0x196>
    2624:	ab c0       	rjmp	.+342    	; 0x277c <main+0x2ec>
            {
                cli(); RTC_timer_done&=~(_BV(RTC_TIMER_OVF)|_BV(RTC_TIMER_RTC)); sei();
    2626:	f8 94       	cli
    2628:	9e 77       	andi	r25, 0x7E	; 126
    262a:	90 93 2c 02 	sts	0x022C, r25
    262e:	78 94       	sei
                #if (DEBUG_PRINT_RTC_TICKS)
                    COM_putchar('*');
                    COM_flush();
                #endif
                bool minute=(RTC_GetSecond()==0);
    2630:	10 e0       	ldi	r17, 0x00	; 0
    2632:	80 91 0f 01 	lds	r24, 0x010F
    2636:	88 23       	and	r24, r24
    2638:	09 f4       	brne	.+2      	; 0x263c <main+0x1ac>
    263a:	11 e0       	ldi	r17, 0x01	; 1
                valve_wanted = CTL_update(minute,valve_wanted);
    263c:	81 2f       	mov	r24, r17
    263e:	60 91 2f 02 	lds	r22, 0x022F
    2642:	0e 94 17 05 	call	0xa2e	; 0xa2e <CTL_update>
    2646:	80 93 2f 02 	sts	0x022F, r24
                if (minute) {
    264a:	11 23       	and	r17, r17
    264c:	b9 f0       	breq	.+46     	; 0x267c <main+0x1ec>
                    if (((CTL_error &  (CTL_ERR_BATT_LOW | CTL_ERR_BATT_WARNING)) == 0)
    264e:	80 91 30 01 	lds	r24, 0x0130
    2652:	80 7c       	andi	r24, 0xC0	; 192
    2654:	91 f4       	brne	.+36     	; 0x267a <main+0x1ea>
    2656:	80 91 10 01 	lds	r24, 0x0110
    265a:	86 30       	cpi	r24, 0x06	; 6
    265c:	71 f4       	brne	.+28     	; 0x267a <main+0x1ea>
    265e:	80 91 0d 01 	lds	r24, 0x010D
    2662:	8a 30       	cpi	r24, 0x0A	; 10
    2664:	51 f4       	brne	.+20     	; 0x267a <main+0x1ea>
    2666:	80 91 0e 01 	lds	r24, 0x010E
    266a:	88 23       	and	r24, r24
    266c:	31 f4       	brne	.+12     	; 0x267a <main+0x1ea>
    				    && (RTC_GetHour()==10)
    				    && (RTC_GetMinute()==0)) {
                        // every sunday 10:00AM
                        // TODO: improve this code!
                        // valve protection / CyCL
                        sumError=0;
    266e:	10 92 32 01 	sts	0x0132, r1
    2672:	10 92 31 01 	sts	0x0131, r1
                        MOTOR_updateCalibration(0);
    2676:	0e 94 84 04 	call	0x908	; 0x908 <MOTOR_updateCalibration>
                           		PID_force_update = 0;
                        	}
                    	}
					#endif
                    #if RFM
                        wirelesTimeSyncCheck();
    267a:	3e d8       	rcall	.-3972   	; 0x16f8 <wirelesTimeSyncCheck>
                    #endif
                }
                #if RFM
    				if ((config.RFM_devaddr!=0)
    267c:	20 91 7d 03 	lds	r18, 0x037D
    2680:	22 23       	and	r18, r18
    2682:	c9 f1       	breq	.+114    	; 0x26f6 <main+0x266>
    2684:	80 91 e0 01 	lds	r24, 0x01E0
    2688:	82 30       	cpi	r24, 0x02	; 2
    268a:	ac f1       	brlt	.+106    	; 0x26f6 <main+0x266>
    268c:	90 91 0f 01 	lds	r25, 0x010F
    2690:	92 17       	cp	r25, r18
    2692:	21 f4       	brne	.+8      	; 0x269c <main+0x20c>
    2694:	80 91 de 01 	lds	r24, 0x01DE
    2698:	88 23       	and	r24, r24
    269a:	41 f5       	brne	.+80     	; 0x26ec <main+0x25c>
    269c:	9f 31       	cpi	r25, 0x1F	; 31
    269e:	48 f0       	brcs	.+18     	; 0x26b2 <main+0x222>
    26a0:	90 ff       	sbrs	r25, 0
    26a2:	03 c0       	rjmp	.+6      	; 0x26aa <main+0x21a>
    26a4:	80 91 c0 02 	lds	r24, 0x02C0
    26a8:	02 c0       	rjmp	.+4      	; 0x26ae <main+0x21e>
    26aa:	80 91 bf 02 	lds	r24, 0x02BF
    26ae:	82 17       	cp	r24, r18
    26b0:	e9 f0       	breq	.+58     	; 0x26ec <main+0x25c>
    26b2:	80 91 c0 02 	lds	r24, 0x02C0
    26b6:	8f 3f       	cpi	r24, 0xFF	; 255
    26b8:	f1 f4       	brne	.+60     	; 0x26f6 <main+0x266>
    26ba:	89 2f       	mov	r24, r25
    26bc:	6e e1       	ldi	r22, 0x1E	; 30
    26be:	0e 94 2d 1d 	call	0x3a5a	; 0x3a5a <__udivmodqi4>
    26c2:	92 17       	cp	r25, r18
    26c4:	c1 f4       	brne	.+48     	; 0x26f6 <main+0x266>
    26c6:	80 91 93 02 	lds	r24, 0x0293
    26ca:	90 91 94 02 	lds	r25, 0x0294
    26ce:	a0 91 95 02 	lds	r26, 0x0295
    26d2:	b0 91 96 02 	lds	r27, 0x0296
    26d6:	04 c0       	rjmp	.+8      	; 0x26e0 <main+0x250>
    26d8:	b6 95       	lsr	r27
    26da:	a7 95       	ror	r26
    26dc:	97 95       	ror	r25
    26de:	87 95       	ror	r24
    26e0:	2a 95       	dec	r18
    26e2:	d2 f7       	brpl	.-12     	; 0x26d8 <main+0x248>
    26e4:	81 70       	andi	r24, 0x01	; 1
    26e6:	90 70       	andi	r25, 0x00	; 0
    26e8:	89 2b       	or	r24, r25
    26ea:	29 f0       	breq	.+10     	; 0x26f6 <main+0x266>
                                    ((wl_force_flags>>config.RFM_devaddr)&1)
                                )
                            )
                        )) // collission protection: every HR20 shall send when the second counter is equal to it's own address.
    				{
                        wirelessTimerCase = WL_TIMER_FIRST;
    26ec:	00 93 df 01 	sts	0x01DF, r16
                        RTC_timer_set(RTC_TIMER_RFM, WLTIME_START);
    26f0:	82 e0       	ldi	r24, 0x02	; 2
    26f2:	6c e0       	ldi	r22, 0x0C	; 12
    26f4:	fe db       	rcall	.-2052   	; 0x1ef2 <RTC_timer_set>
    				}
    				if ((config.RFM_devaddr!=0)
    26f6:	80 91 7d 03 	lds	r24, 0x037D
    26fa:	88 23       	and	r24, r24
    26fc:	b9 f0       	breq	.+46     	; 0x272c <main+0x29c>
    26fe:	80 91 e0 01 	lds	r24, 0x01E0
    2702:	82 30       	cpi	r24, 0x02	; 2
    2704:	9c f0       	brlt	.+38     	; 0x272c <main+0x29c>
    2706:	80 91 0f 01 	lds	r24, 0x010F
    270a:	8b 33       	cpi	r24, 0x3B	; 59
    270c:	11 f0       	breq	.+4      	; 0x2712 <main+0x282>
    270e:	8d 31       	cpi	r24, 0x1D	; 29
    2710:	69 f4       	brne	.+26     	; 0x272c <main+0x29c>
    				    && (time_sync_tmo>1)
                        && ((RTC_GetSecond() == 59) || (RTC_GetSecond() == 29)))
                    {
						#if (WL_SKIP_SYNC)
							if (wl_skip_sync!=0) {
    2712:	80 91 e1 01 	lds	r24, 0x01E1
    2716:	88 23       	and	r24, r24
    2718:	21 f0       	breq	.+8      	; 0x2722 <main+0x292>
								wl_skip_sync--;
    271a:	81 50       	subi	r24, 0x01	; 1
    271c:	80 93 e1 01 	sts	0x01E1, r24
    2720:	05 c0       	rjmp	.+10     	; 0x272c <main+0x29c>
							} else
						#endif
							{
								wirelessTimerCase = WL_TIMER_SYNC;
    2722:	f0 92 df 01 	sts	0x01DF, r15
                        		RTC_timer_set(RTC_TIMER_RFM, WLTIME_SYNC);
    2726:	82 e0       	ldi	r24, 0x02	; 2
    2728:	6d ef       	ldi	r22, 0xFD	; 253
    272a:	e3 db       	rcall	.-2106   	; 0x1ef2 <RTC_timer_set>
							}
                    }
                #endif
                if (bat_average>0) {
    272c:	80 91 38 02 	lds	r24, 0x0238
    2730:	90 91 39 02 	lds	r25, 0x0239
    2734:	18 16       	cp	r1, r24
    2736:	19 06       	cpc	r1, r25
    2738:	3c f4       	brge	.+14     	; 0x2748 <main+0x2b8>
                  MOTOR_updateCalibration(mont_contact_pooling());
    273a:	aa d0       	rcall	.+340    	; 0x2890 <mont_contact_pooling>
    273c:	0e 94 84 04 	call	0x908	; 0x908 <MOTOR_updateCalibration>
                  MOTOR_Goto(valve_wanted);
    2740:	80 91 2f 02 	lds	r24, 0x022F
    2744:	0e 94 f6 01 	call	0x3ec	; 0x3ec <MOTOR_Goto>
                }
                task_keyboard_long_press_detect();
    2748:	47 d0       	rcall	.+142    	; 0x27d8 <task_keyboard_long_press_detect>
                if ((MOTOR_Dir==stop) || (config.allow_ADC_during_motor)) start_task_ADC();
    274a:	80 91 92 02 	lds	r24, 0x0292
    274e:	88 23       	and	r24, r24
    2750:	21 f0       	breq	.+8      	; 0x275a <main+0x2ca>
    2752:	80 91 79 03 	lds	r24, 0x0379
    2756:	88 23       	and	r24, r24
    2758:	09 f0       	breq	.+2      	; 0x275c <main+0x2cc>
    275a:	c8 d1       	rcall	.+912    	; 0x2aec <start_task_ADC>
                if (menu_auto_update_timeout>=0) {
    275c:	80 91 15 01 	lds	r24, 0x0115
    2760:	87 fd       	sbrc	r24, 7
    2762:	03 c0       	rjmp	.+6      	; 0x276a <main+0x2da>
                    menu_auto_update_timeout--;
    2764:	81 50       	subi	r24, 0x01	; 1
    2766:	80 93 15 01 	sts	0x0115, r24
                }
                menu_view(false); // TODO: move it, it is wrong place
    276a:	80 e0       	ldi	r24, 0x00	; 0
    276c:	7e d3       	rcall	.+1788   	; 0x2e6a <menu_view>
                LCD_Update(); // TODO: move it, it is wrong place
    276e:	80 91 e4 00 	lds	r24, 0x00E4
    2772:	88 60       	ori	r24, 0x08	; 8
    2774:	80 93 e4 00 	sts	0x00E4, r24
    2778:	00 93 8b 02 	sts	0x028B, r16
            }
            #if RFM
              if (RTC_timer_done&_BV(RTC_TIMER_RFM))
    277c:	80 91 2c 02 	lds	r24, 0x022C
    2780:	82 ff       	sbrs	r24, 2
    2782:	06 c0       	rjmp	.+12     	; 0x2790 <main+0x300>
              {
                  cli(); RTC_timer_done&=~_BV(RTC_TIMER_RFM); sei();
    2784:	f8 94       	cli
    2786:	8b 7f       	andi	r24, 0xFB	; 251
    2788:	80 93 2c 02 	sts	0x022C, r24
    278c:	78 94       	sei
                  wirelessTimer();
    278e:	f0 d9       	rcall	.-3104   	; 0x1b70 <wirelessTimer>
            #endif
            // do not use continue here (menu_auto_update_timeout==0)
        }

		// menu state machine
		if (kb_events || (menu_auto_update_timeout==0)) {
    2790:	80 91 30 02 	lds	r24, 0x0230
    2794:	90 91 31 02 	lds	r25, 0x0231
    2798:	89 2b       	or	r24, r25
    279a:	21 f4       	brne	.+8      	; 0x27a4 <main+0x314>
    279c:	80 91 15 01 	lds	r24, 0x0115
    27a0:	88 23       	and	r24, r24
    27a2:	89 f4       	brne	.+34     	; 0x27c6 <main+0x336>
           bool update = menu_controller(false);
    27a4:	80 e0       	ldi	r24, 0x00	; 0
    27a6:	e3 d4       	rcall	.+2502   	; 0x316e <menu_controller>
    27a8:	18 2f       	mov	r17, r24
           if (update) {
    27aa:	88 23       	and	r24, r24
    27ac:	11 f0       	breq	.+4      	; 0x27b2 <main+0x322>
               menu_controller(true); // menu updated, call it again
    27ae:	81 e0       	ldi	r24, 0x01	; 1
    27b0:	de d4       	rcall	.+2492   	; 0x316e <menu_controller>
           }
           menu_view(update); // TODO: move it, it is wrong place
    27b2:	81 2f       	mov	r24, r17
    27b4:	5a d3       	rcall	.+1716   	; 0x2e6a <menu_view>
	       LCD_Update(); // TODO: move it, it is wrong place
    27b6:	80 91 e4 00 	lds	r24, 0x00E4
    27ba:	88 60       	ori	r24, 0x08	; 8
    27bc:	80 93 e4 00 	sts	0x00E4, r24
    27c0:	00 93 8b 02 	sts	0x028B, r16
    27c4:	c8 ce       	rjmp	.-624    	; 0x2556 <main+0xc6>
			continue; // on most case we have only 1 task, improve time to sleep
		}

        // update motor PWM
        if (task & TASK_MOTOR_PULSE) {
    27c6:	f4 9b       	sbis	0x1e, 4	; 30
    27c8:	c6 ce       	rjmp	.-628    	; 0x2556 <main+0xc6>
            task&=~TASK_MOTOR_PULSE;
    27ca:	f4 98       	cbi	0x1e, 4	; 30
            MOTOR_updateCalibration(mont_contact_pooling());
    27cc:	61 d0       	rcall	.+194    	; 0x2890 <mont_contact_pooling>
    27ce:	0e 94 84 04 	call	0x908	; 0x908 <MOTOR_updateCalibration>
            MOTOR_timer_pulse();
    27d2:	0e 94 42 02 	call	0x484	; 0x484 <MOTOR_timer_pulse>
    27d6:	bf ce       	rjmp	.-642    	; 0x2556 <main+0xc6>

000027d8 <task_keyboard_long_press_detect>:
 *
 *  \note
 ******************************************************************************/

void task_keyboard_long_press_detect(void) {
	if (! state_front_prev) {
    27d8:	90 91 34 02 	lds	r25, 0x0234
    27dc:	99 23       	and	r25, r25
    27de:	a1 f4       	brne	.+40     	; 0x2808 <task_keyboard_long_press_detect+0x30>
		if (++long_quiet == 0) {
    27e0:	80 91 36 02 	lds	r24, 0x0236
    27e4:	8f 5f       	subi	r24, 0xFF	; 255
    27e6:	80 93 36 02 	sts	0x0236, r24
    27ea:	88 23       	and	r24, r24
    27ec:	21 f4       	brne	.+8      	; 0x27f6 <task_keyboard_long_press_detect+0x1e>
			// overload protection, nothing to do, event was generated previous
			long_quiet--;
    27ee:	8f ef       	ldi	r24, 0xFF	; 255
    27f0:	80 93 36 02 	sts	0x0236, r24
    27f4:	08 95       	ret
			return;
		}
		if (long_quiet == LONG_QUIET_THLD) {
    27f6:	84 31       	cpi	r24, 0x14	; 20
    27f8:	09 f0       	breq	.+2      	; 0x27fc <task_keyboard_long_press_detect+0x24>
    27fa:	49 c0       	rjmp	.+146    	; 0x288e <task_keyboard_long_press_detect+0xb6>
			kb_events |= KB_EVENT_NONE_LONG;
    27fc:	80 91 30 02 	lds	r24, 0x0230
    2800:	90 91 31 02 	lds	r25, 0x0231
    2804:	90 62       	ori	r25, 0x20	; 32
    2806:	35 c0       	rjmp	.+106    	; 0x2872 <task_keyboard_long_press_detect+0x9a>
		}
	} else { // if (! state_front_prev)

		if (++long_press == 0) {
    2808:	80 91 35 02 	lds	r24, 0x0235
    280c:	8f 5f       	subi	r24, 0xFF	; 255
    280e:	80 93 35 02 	sts	0x0235, r24
    2812:	88 23       	and	r24, r24
    2814:	21 f4       	brne	.+8      	; 0x281e <task_keyboard_long_press_detect+0x46>
			// overload protection, nothing to do, event was generated previous
			long_press--;
    2816:	8f ef       	ldi	r24, 0xFF	; 255
    2818:	80 93 35 02 	sts	0x0235, r24
    281c:	08 95       	ret
			return;
		}
		if (long_press == LONG_PRESS_THLD) {
    281e:	84 30       	cpi	r24, 0x04	; 4
    2820:	b1 f5       	brne	.+108    	; 0x288e <task_keyboard_long_press_detect+0xb6>
			switch (state_front_prev) {
    2822:	98 30       	cpi	r25, 0x08	; 8
    2824:	d1 f0       	breq	.+52     	; 0x285a <task_keyboard_long_press_detect+0x82>
    2826:	99 30       	cpi	r25, 0x09	; 9
    2828:	28 f4       	brcc	.+10     	; 0x2834 <task_keyboard_long_press_detect+0x5c>
    282a:	92 30       	cpi	r25, 0x02	; 2
    282c:	79 f0       	breq	.+30     	; 0x284c <task_keyboard_long_press_detect+0x74>
    282e:	94 30       	cpi	r25, 0x04	; 4
    2830:	71 f5       	brne	.+92     	; 0x288e <task_keyboard_long_press_detect+0xb6>
    2832:	05 c0       	rjmp	.+10     	; 0x283e <task_keyboard_long_press_detect+0x66>
    2834:	9a 30       	cpi	r25, 0x0A	; 10
    2836:	c1 f0       	breq	.+48     	; 0x2868 <task_keyboard_long_press_detect+0x90>
    2838:	9e 30       	cpi	r25, 0x0E	; 14
    283a:	49 f5       	brne	.+82     	; 0x288e <task_keyboard_long_press_detect+0xb6>
    283c:	1f c0       	rjmp	.+62     	; 0x287c <task_keyboard_long_press_detect+0xa4>
			case KBI_PROG:
				kb_events |= KB_EVENT_PROG_LONG | KB_EVENT_PROG_REWOKE;
    283e:	80 91 30 02 	lds	r24, 0x0230
    2842:	90 91 31 02 	lds	r25, 0x0231
    2846:	80 62       	ori	r24, 0x20	; 32
    2848:	91 60       	ori	r25, 0x01	; 1
    284a:	13 c0       	rjmp	.+38     	; 0x2872 <task_keyboard_long_press_detect+0x9a>
				break;
			case KBI_C:
				kb_events |= KB_EVENT_C_LONG | KB_EVENT_C_REWOKE;
    284c:	80 91 30 02 	lds	r24, 0x0230
    2850:	90 91 31 02 	lds	r25, 0x0231
    2854:	80 64       	ori	r24, 0x40	; 64
    2856:	92 60       	ori	r25, 0x02	; 2
    2858:	0c c0       	rjmp	.+24     	; 0x2872 <task_keyboard_long_press_detect+0x9a>
				break;
			case KBI_AUTO:
				kb_events |= KB_EVENT_AUTO_LONG | KB_EVENT_AUTO_REWOKE;
    285a:	80 91 30 02 	lds	r24, 0x0230
    285e:	90 91 31 02 	lds	r25, 0x0231
    2862:	80 68       	ori	r24, 0x80	; 128
    2864:	94 60       	ori	r25, 0x04	; 4
    2866:	05 c0       	rjmp	.+10     	; 0x2872 <task_keyboard_long_press_detect+0x9a>
				break;
			case KBI_AUTO | KBI_C:
				kb_events |= KB_EVENT_LOCK_LONG;
    2868:	80 91 30 02 	lds	r24, 0x0230
    286c:	90 91 31 02 	lds	r25, 0x0231
    2870:	98 60       	ori	r25, 0x08	; 8
    2872:	90 93 31 02 	sts	0x0231, r25
    2876:	80 93 30 02 	sts	0x0230, r24
    287a:	08 95       	ret
				break;
			case KBI_PROG | KBI_C | KBI_AUTO:
				kb_events |= KB_EVENT_ALL_LONG;
    287c:	80 91 30 02 	lds	r24, 0x0230
    2880:	90 91 31 02 	lds	r25, 0x0231
    2884:	90 61       	ori	r25, 0x10	; 16
    2886:	90 93 31 02 	sts	0x0231, r25
    288a:	80 93 30 02 	sts	0x0230, r24
    288e:	08 95       	ret

00002890 <mont_contact_pooling>:
bool mont_contact_pooling(void){
#if THERMOTRONIC || DEBUG_IGNORE_MONT_CONTACT
	return 1; //no contact - exit!
#else
   bool mont_contact;
    enable_mont_input();
    2890:	20 98       	cbi	0x04, 0	; 4
    2892:	28 9a       	sbi	0x05, 0	; 5
    nop(); nop();
    2894:	00 00       	nop
    2896:	00 00       	nop
    // crazy order of instructions, but we need any instructions
    // between PORTB setting and reading PINB due to AVR design
    #if DEBUG_IGNORE_MONT_CONTACT==1
        mont_contact= 1;
    #else
        mont_contact = ~PINB & (KBI_MONT | KBI_PROG | KBI_C);
    2898:	83 b1       	in	r24, 0x03	; 3
    #endif
      // low active
    disable_mont_input();
    289a:	28 98       	cbi	0x05, 0	; 5
    289c:	20 9a       	sbi	0x04, 0	; 4
    if (mont_contact & KBI_MONT) { 
    289e:	80 95       	com	r24
    28a0:	87 70       	andi	r24, 0x07	; 7
    28a2:	90 91 30 01 	lds	r25, 0x0130
    28a6:	80 ff       	sbrs	r24, 0
    28a8:	09 c0       	rjmp	.+18     	; 0x28bc <mont_contact_pooling+0x2c>
        CTL_error |=  CTL_ERR_MONTAGE;
    28aa:	94 60       	ori	r25, 0x04	; 4
    28ac:	90 93 30 01 	sts	0x0130, r25
		sumError=0;
    28b0:	10 92 32 01 	sts	0x0132, r1
    28b4:	10 92 31 01 	sts	0x0131, r1
    28b8:	80 e0       	ldi	r24, 0x00	; 0
    28ba:	08 95       	ret
        return 0;
    } else {
        CTL_error &= ~CTL_ERR_MONTAGE;
    28bc:	9b 7f       	andi	r25, 0xFB	; 251
    28be:	90 93 30 01 	sts	0x0130, r25
        if (mont_contact & KBI_C) return 2;
    28c2:	81 ff       	sbrs	r24, 1
    28c4:	02 c0       	rjmp	.+4      	; 0x28ca <mont_contact_pooling+0x3a>
    28c6:	82 e0       	ldi	r24, 0x02	; 2
    28c8:	08 95       	ret
        if (mont_contact & KBI_PROG) return 3;
    28ca:	82 fd       	sbrc	r24, 2
    28cc:	02 c0       	rjmp	.+4      	; 0x28d2 <mont_contact_pooling+0x42>
    28ce:	81 e0       	ldi	r24, 0x01	; 1
    28d0:	08 95       	ret
    28d2:	83 e0       	ldi	r24, 0x03	; 3
        return 1;
    }
#endif
}
    28d4:	08 95       	ret

000028d6 <__vector_3>:
 * Interrupt Routine
 *
 *  - create task for keyboard scan and wake up
 *  - read keyboard status
 ******************************************************************************/
ISR(PCINT1_vect){
    28d6:	1f 92       	push	r1
    28d8:	0f 92       	push	r0
    28da:	0f b6       	in	r0, 0x3f	; 63
    28dc:	0f 92       	push	r0
    28de:	11 24       	eor	r1, r1
    28e0:	8f 93       	push	r24
    enable_rot2_input();
    28e2:	26 98       	cbi	0x04, 6	; 4
    28e4:	2e 9a       	sbi	0x05, 6	; 5
    task |= TASK_KB;
    28e6:	f0 9a       	sbi	0x1e, 0	; 30
    asm volatile ("nop");
    28e8:	00 00       	nop

    // crazy oder of instructions, bud we need any instructions
    // between PORTB setting and reading PINB due to AVR design
    keys = ~PINB
    28ea:	83 b1       	in	r24, 0x03	; 3
    28ec:	80 95       	com	r24
    28ee:	8e 76       	andi	r24, 0x6E	; 110
    28f0:	80 93 32 02 	sts	0x0232, r24
      & (KBI_C | KBI_PROG | KBI_AUTO | KBI_ROT1 | KBI_ROT2); 
      // low active

    disable_rot2_input();
    28f4:	2e 98       	cbi	0x05, 6	; 5
    28f6:	26 9a       	sbi	0x04, 6	; 4
}
    28f8:	8f 91       	pop	r24
    28fa:	0f 90       	pop	r0
    28fc:	0f be       	out	0x3f, r0	; 63
    28fe:	0f 90       	pop	r0
    2900:	1f 90       	pop	r1
    2902:	18 95       	reti

00002904 <task_keyboard>:
 *  Recognize keypress and wheel
 *
 *  \note
 ******************************************************************************/

void task_keyboard(void) {
    2904:	1f 93       	push	r17

 
 {	// wheel
	uint8_t wheel= keys & (KBI_ROT1 | KBI_ROT2);
    2906:	20 91 32 02 	lds	r18, 0x0232
    290a:	20 76       	andi	r18, 0x60	; 96
	if ((wheel ^ state_wheel_prev) & KBI_ROT1) {	//only ROT1 have interrupt, change detection
    290c:	80 91 12 03 	lds	r24, 0x0312
    2910:	82 27       	eor	r24, r18
    2912:	85 ff       	sbrs	r24, 5
    2914:	17 c0       	rjmp	.+46     	; 0x2944 <task_keyboard+0x40>
		if ((wheel == 0) || (wheel == (KBI_ROT1|KBI_ROT2))) {
    2916:	22 23       	and	r18, r18
    2918:	11 f0       	breq	.+4      	; 0x291e <task_keyboard+0x1a>
    291a:	20 36       	cpi	r18, 0x60	; 96
    291c:	31 f4       	brne	.+12     	; 0x292a <task_keyboard+0x26>
			kb_events |= KB_EVENT_WHEEL_MINUS;
    291e:	80 91 30 02 	lds	r24, 0x0230
    2922:	90 91 31 02 	lds	r25, 0x0231
    2926:	82 60       	ori	r24, 0x02	; 2
    2928:	05 c0       	rjmp	.+10     	; 0x2934 <task_keyboard+0x30>
			long_quiet = 0;
		} else {
			kb_events |= KB_EVENT_WHEEL_PLUS;
    292a:	80 91 30 02 	lds	r24, 0x0230
    292e:	90 91 31 02 	lds	r25, 0x0231
    2932:	81 60       	ori	r24, 0x01	; 1
    2934:	90 93 31 02 	sts	0x0231, r25
    2938:	80 93 30 02 	sts	0x0230, r24
			long_quiet = 0;
    293c:	10 92 36 02 	sts	0x0236, r1
		}
		state_wheel_prev = wheel;
    2940:	20 93 12 03 	sts	0x0312, r18
	}
 } // wheel
 { // other keys
 	uint8_t front = keys & ( KBI_PROG | KBI_C | KBI_AUTO);
    2944:	10 91 32 02 	lds	r17, 0x0232
    2948:	1e 70       	andi	r17, 0x0E	; 14
	if (front != state_front_prev) {
    294a:	20 91 34 02 	lds	r18, 0x0234
    294e:	12 17       	cp	r17, r18
    2950:	09 f4       	brne	.+2      	; 0x2954 <task_keyboard+0x50>
    2952:	5e c0       	rjmp	.+188    	; 0x2a10 <task_keyboard+0x10c>
		if (front && (state_front_prev == 0) && kb_timeout) {
    2954:	11 23       	and	r17, r17
    2956:	21 f1       	breq	.+72     	; 0x29a0 <task_keyboard+0x9c>
    2958:	22 23       	and	r18, r18
    295a:	11 f5       	brne	.+68     	; 0x29a0 <task_keyboard+0x9c>
    295c:	80 91 12 01 	lds	r24, 0x0112
    2960:	88 23       	and	r24, r24
    2962:	f1 f0       	breq	.+60     	; 0x29a0 <task_keyboard+0x9c>
			if (front == KBI_PROG) {
    2964:	14 30       	cpi	r17, 0x04	; 4
    2966:	31 f4       	brne	.+12     	; 0x2974 <task_keyboard+0x70>
				kb_events |= KB_EVENT_PROG;
    2968:	80 91 30 02 	lds	r24, 0x0230
    296c:	90 91 31 02 	lds	r25, 0x0231
    2970:	84 60       	ori	r24, 0x04	; 4
    2972:	0f c0       	rjmp	.+30     	; 0x2992 <task_keyboard+0x8e>
				allow_rewoke = true;
			} else if (front == KBI_C) {
    2974:	12 30       	cpi	r17, 0x02	; 2
    2976:	31 f4       	brne	.+12     	; 0x2984 <task_keyboard+0x80>
				kb_events |= KB_EVENT_C;
    2978:	80 91 30 02 	lds	r24, 0x0230
    297c:	90 91 31 02 	lds	r25, 0x0231
    2980:	88 60       	ori	r24, 0x08	; 8
    2982:	07 c0       	rjmp	.+14     	; 0x2992 <task_keyboard+0x8e>
				allow_rewoke = true;
			} else if (front == KBI_AUTO) {
    2984:	18 30       	cpi	r17, 0x08	; 8
    2986:	61 f4       	brne	.+24     	; 0x29a0 <task_keyboard+0x9c>
				kb_events |= KB_EVENT_AUTO;
    2988:	80 91 30 02 	lds	r24, 0x0230
    298c:	90 91 31 02 	lds	r25, 0x0231
    2990:	80 61       	ori	r24, 0x10	; 16
    2992:	90 93 31 02 	sts	0x0231, r25
    2996:	80 93 30 02 	sts	0x0230, r24
				allow_rewoke = true;
    299a:	81 e0       	ldi	r24, 0x01	; 1
    299c:	80 93 33 02 	sts	0x0233, r24
			} 
		}

        if (allow_rewoke) {
    29a0:	80 91 33 02 	lds	r24, 0x0233
    29a4:	88 23       	and	r24, r24
    29a6:	19 f1       	breq	.+70     	; 0x29ee <task_keyboard+0xea>
    		// some key was pressed, and keep key pressed and add some other key
    		// we need "REVOKE" event
    		if ((state_front_prev == KBI_PROG) && ((front ^ KBI_PROG) != KBI_PROG)) {
    29a8:	24 30       	cpi	r18, 0x04	; 4
    29aa:	41 f4       	brne	.+16     	; 0x29bc <task_keyboard+0xb8>
    29ac:	11 23       	and	r17, r17
    29ae:	f9 f0       	breq	.+62     	; 0x29ee <task_keyboard+0xea>
    			kb_events |= KB_EVENT_PROG_REWOKE;
    29b0:	80 91 30 02 	lds	r24, 0x0230
    29b4:	90 91 31 02 	lds	r25, 0x0231
    29b8:	80 62       	ori	r24, 0x20	; 32
    29ba:	13 c0       	rjmp	.+38     	; 0x29e2 <task_keyboard+0xde>
				allow_rewoke = false;
    		}
    		if ((state_front_prev == KBI_C) && ((front ^ KBI_C) != KBI_C)) {
    29bc:	22 30       	cpi	r18, 0x02	; 2
    29be:	41 f4       	brne	.+16     	; 0x29d0 <task_keyboard+0xcc>
    29c0:	11 23       	and	r17, r17
    29c2:	a9 f0       	breq	.+42     	; 0x29ee <task_keyboard+0xea>
    			kb_events |= KB_EVENT_C_REWOKE;
    29c4:	80 91 30 02 	lds	r24, 0x0230
    29c8:	90 91 31 02 	lds	r25, 0x0231
    29cc:	80 64       	ori	r24, 0x40	; 64
    29ce:	09 c0       	rjmp	.+18     	; 0x29e2 <task_keyboard+0xde>
				allow_rewoke = false;
    		}
    		if ((state_front_prev == KBI_AUTO) && ((front ^ KBI_AUTO) != KBI_AUTO)) {
    29d0:	28 30       	cpi	r18, 0x08	; 8
    29d2:	69 f4       	brne	.+26     	; 0x29ee <task_keyboard+0xea>
    29d4:	11 23       	and	r17, r17
    29d6:	59 f0       	breq	.+22     	; 0x29ee <task_keyboard+0xea>
    			kb_events |= KB_EVENT_AUTO_REWOKE;
    29d8:	80 91 30 02 	lds	r24, 0x0230
    29dc:	90 91 31 02 	lds	r25, 0x0231
    29e0:	80 68       	ori	r24, 0x80	; 128
    29e2:	90 93 31 02 	sts	0x0231, r25
    29e6:	80 93 30 02 	sts	0x0230, r24
				allow_rewoke = false;
    29ea:	10 92 33 02 	sts	0x0233, r1
    		}
    	}
		if (kb_timeout) { // keyboard noise cancellation
    29ee:	80 91 12 01 	lds	r24, 0x0112
    29f2:	88 23       	and	r24, r24
    29f4:	39 f0       	breq	.+14     	; 0x2a04 <task_keyboard+0x100>
            kb_timeout = false;
    29f6:	10 92 12 01 	sts	0x0112, r1
            // while (ASSR & (1<<OCR2UB)) {;} //this is not needed; kb_timeout==true means that OCR2A must be free
            RTC_timer_set(RTC_TIMER_KB,TCNT2 + KEYBOARD_NOISE_CANCELATION);
    29fa:	60 91 b2 00 	lds	r22, 0x00B2
    29fe:	6e 5c       	subi	r22, 0xCE	; 206
    2a00:	81 e0       	ldi	r24, 0x01	; 1
    2a02:	77 da       	rcall	.-2834   	; 0x1ef2 <RTC_timer_set>
        }
        state_front_prev = front;

        state_front_prev = front;
    2a04:	10 93 34 02 	sts	0x0234, r17
		long_press = 0; // long press detection RESET
    2a08:	10 92 35 02 	sts	0x0235, r1
		long_quiet = 0;
    2a0c:	10 92 36 02 	sts	0x0236, r1
	} 
 }
}
    2a10:	1f 91       	pop	r17
    2a12:	08 95       	ret

00002a14 <update_ring>:
	if (ring_used<AVERAGE_LEN) {
		ring_used++;
	} 
}

static void update_ring(uint8_t type, int16_t value) {
    2a14:	a0 e0       	ldi	r26, 0x00	; 0
    2a16:	b0 e0       	ldi	r27, 0x00	; 0
    2a18:	e0 e1       	ldi	r30, 0x10	; 16
    2a1a:	f5 e1       	ldi	r31, 0x15	; 21
    2a1c:	0c 94 b0 1d 	jmp	0x3b60	; 0x3b60 <__prologue_saves__+0xc>
    2a20:	6b 01       	movw	r12, r22

	ring_sum[type]+=value;
    2a22:	e8 2e       	mov	r14, r24
    2a24:	ff 24       	eor	r15, r15
    2a26:	9b 01       	movw	r18, r22
    2a28:	44 27       	eor	r20, r20
    2a2a:	37 fd       	sbrc	r19, 7
    2a2c:	40 95       	com	r20
    2a2e:	54 2f       	mov	r21, r20
    2a30:	e7 01       	movw	r28, r14
    2a32:	cc 0f       	add	r28, r28
    2a34:	dd 1f       	adc	r29, r29
    2a36:	cc 0f       	add	r28, r28
    2a38:	dd 1f       	adc	r29, r29
    2a3a:	c2 5c       	subi	r28, 0xC2	; 194
    2a3c:	dd 4f       	sbci	r29, 0xFD	; 253
    2a3e:	88 81       	ld	r24, Y
    2a40:	99 81       	ldd	r25, Y+1	; 0x01
    2a42:	aa 81       	ldd	r26, Y+2	; 0x02
    2a44:	bb 81       	ldd	r27, Y+3	; 0x03
    2a46:	28 0f       	add	r18, r24
    2a48:	39 1f       	adc	r19, r25
    2a4a:	4a 1f       	adc	r20, r26
    2a4c:	5b 1f       	adc	r21, r27
    2a4e:	28 83       	st	Y, r18
    2a50:	39 83       	std	Y+1, r19	; 0x01
    2a52:	4a 83       	std	Y+2, r20	; 0x02
    2a54:	5b 83       	std	Y+3, r21	; 0x03
	if (ring_used>=AVERAGE_LEN) {
    2a56:	80 91 13 01 	lds	r24, 0x0113
    2a5a:	8f 30       	cpi	r24, 0x0F	; 15
    2a5c:	80 f1       	brcs	.+96     	; 0x2abe <update_ring+0xaa>
		ring_sum[type]-=ring_buf[type][ring_pos];
    2a5e:	80 91 46 02 	lds	r24, 0x0246
    2a62:	f7 01       	movw	r30, r14
    2a64:	74 e0       	ldi	r23, 0x04	; 4
    2a66:	ee 0f       	add	r30, r30
    2a68:	ff 1f       	adc	r31, r31
    2a6a:	7a 95       	dec	r23
    2a6c:	e1 f7       	brne	.-8      	; 0x2a66 <update_ring+0x52>
    2a6e:	ee 19       	sub	r30, r14
    2a70:	ff 09       	sbc	r31, r15
    2a72:	e8 0f       	add	r30, r24
    2a74:	f1 1d       	adc	r31, r1
    2a76:	ee 0f       	add	r30, r30
    2a78:	ff 1f       	adc	r31, r31
    2a7a:	e8 5b       	subi	r30, 0xB8	; 184
    2a7c:	fd 4f       	sbci	r31, 0xFD	; 253
    2a7e:	80 81       	ld	r24, Z
    2a80:	91 81       	ldd	r25, Z+1	; 0x01
    2a82:	aa 27       	eor	r26, r26
    2a84:	97 fd       	sbrc	r25, 7
    2a86:	a0 95       	com	r26
    2a88:	ba 2f       	mov	r27, r26
    2a8a:	49 01       	movw	r8, r18
    2a8c:	5a 01       	movw	r10, r20
    2a8e:	88 1a       	sub	r8, r24
    2a90:	99 0a       	sbc	r9, r25
    2a92:	aa 0a       	sbc	r10, r26
    2a94:	bb 0a       	sbc	r11, r27
    2a96:	c5 01       	movw	r24, r10
    2a98:	b4 01       	movw	r22, r8
    2a9a:	88 82       	st	Y, r8
    2a9c:	99 82       	std	Y+1, r9	; 0x01
    2a9e:	aa 82       	std	Y+2, r10	; 0x02
    2aa0:	bb 82       	std	Y+3, r11	; 0x03
		ring_average[type] = (int16_t) (ring_sum[type]/(int32_t)(AVERAGE_LEN));
    2aa2:	87 01       	movw	r16, r14
    2aa4:	00 0f       	add	r16, r16
    2aa6:	11 1f       	adc	r17, r17
    2aa8:	08 5c       	subi	r16, 0xC8	; 200
    2aaa:	1d 4f       	sbci	r17, 0xFD	; 253
    2aac:	2f e0       	ldi	r18, 0x0F	; 15
    2aae:	30 e0       	ldi	r19, 0x00	; 0
    2ab0:	40 e0       	ldi	r20, 0x00	; 0
    2ab2:	50 e0       	ldi	r21, 0x00	; 0
    2ab4:	0e 94 8f 1d 	call	0x3b1e	; 0x3b1e <__divmodsi4>
    2ab8:	f8 01       	movw	r30, r16
    2aba:	31 83       	std	Z+1, r19	; 0x01
    2abc:	20 83       	st	Z, r18
	}
	ring_buf[type][ring_pos]=value;
    2abe:	80 91 46 02 	lds	r24, 0x0246
    2ac2:	f7 01       	movw	r30, r14
    2ac4:	94 e0       	ldi	r25, 0x04	; 4
    2ac6:	ee 0f       	add	r30, r30
    2ac8:	ff 1f       	adc	r31, r31
    2aca:	9a 95       	dec	r25
    2acc:	e1 f7       	brne	.-8      	; 0x2ac6 <update_ring+0xb2>
    2ace:	ee 19       	sub	r30, r14
    2ad0:	ff 09       	sbc	r31, r15
    2ad2:	e8 0f       	add	r30, r24
    2ad4:	f1 1d       	adc	r31, r1
    2ad6:	ee 0f       	add	r30, r30
    2ad8:	ff 1f       	adc	r31, r31
    2ada:	e8 5b       	subi	r30, 0xB8	; 184
    2adc:	fd 4f       	sbci	r31, 0xFD	; 253
    2ade:	d1 82       	std	Z+1, r13	; 0x01
    2ae0:	c0 82       	st	Z, r12
}
    2ae2:	cd b7       	in	r28, 0x3d	; 61
    2ae4:	de b7       	in	r29, 0x3e	; 62
    2ae6:	ec e0       	ldi	r30, 0x0C	; 12
    2ae8:	0c 94 cc 1d 	jmp	0x3b98	; 0x3b98 <__epilogue_restores__+0xc>

00002aec <start_task_ADC>:
 *******************************************************************************
 * ADC task
 * \note
 ******************************************************************************/
void start_task_ADC(void) {
	state_ADC=1;
    2aec:	91 e0       	ldi	r25, 0x01	; 1
    2aee:	90 93 47 02 	sts	0x0247, r25
	// power up ADC
	power_up_ADC();
    2af2:	8c e0       	ldi	r24, 0x0C	; 12
    2af4:	80 93 64 00 	sts	0x0064, r24

    // set ADC control and status register
    ADCSRA = (1<<ADEN)|(1<<ADPS2)|(1<<ADIE);         // prescaler=16
    2af8:	8c e8       	ldi	r24, 0x8C	; 140
    2afa:	80 93 7a 00 	sts	0x007A, r24
    
    // free running mode, (not needed, because auto trigger disabled)
    ADCSRB = 0;
    2afe:	10 92 7b 00 	sts	0x007B, r1

	ADMUX = ADC_UB_MUX | (1<<REFS0);
    2b02:	8e e5       	ldi	r24, 0x5E	; 94
    2b04:	80 93 7c 00 	sts	0x007C, r24
	sleep_with_ADC=1;
    2b08:	90 93 37 02 	sts	0x0237, r25
}
    2b0c:	08 95       	ret

00002b0e <task_ADC>:
static int16_t dummy_adc=0;
/*!
 *******************************************************************************
 * ADC task
 ******************************************************************************/
uint8_t task_ADC(void) {
    2b0e:	ef 92       	push	r14
    2b10:	ff 92       	push	r15
    2b12:	0f 93       	push	r16
    2b14:	1f 93       	push	r17
	switch (++state_ADC) {
    2b16:	80 91 47 02 	lds	r24, 0x0247
    2b1a:	8f 5f       	subi	r24, 0xFF	; 255
    2b1c:	80 93 47 02 	sts	0x0247, r24
    2b20:	83 30       	cpi	r24, 0x03	; 3
    2b22:	81 f0       	breq	.+32     	; 0x2b44 <task_ADC+0x36>
    2b24:	84 30       	cpi	r24, 0x04	; 4
    2b26:	20 f4       	brcc	.+8      	; 0x2b30 <task_ADC+0x22>
    2b28:	82 30       	cpi	r24, 0x02	; 2
    2b2a:	09 f0       	breq	.+2      	; 0x2b2e <task_ADC+0x20>
    2b2c:	ab c0       	rjmp	.+342    	; 0x2c84 <task_ADC+0x176>
    2b2e:	06 c0       	rjmp	.+12     	; 0x2b3c <task_ADC+0x2e>
    2b30:	84 30       	cpi	r24, 0x04	; 4
    2b32:	f1 f0       	breq	.+60     	; 0x2b70 <task_ADC+0x62>
    2b34:	85 30       	cpi	r24, 0x05	; 5
    2b36:	09 f0       	breq	.+2      	; 0x2b3a <task_ADC+0x2c>
    2b38:	a5 c0       	rjmp	.+330    	; 0x2c84 <task_ADC+0x176>
    2b3a:	23 c0       	rjmp	.+70     	; 0x2b82 <task_ADC+0x74>
	case 2: //step 2
	    // set ADC control and status register
    	ADCSRA = (1<<ADEN)|(1<<ADPS2)|(1<<ADPS0)|(1<<ADIE); // prescaler=32
    2b3c:	8d e8       	ldi	r24, 0x8D	; 141
    2b3e:	80 93 7a 00 	sts	0x007A, r24
    2b42:	12 c0       	rjmp	.+36     	; 0x2b68 <task_ADC+0x5a>
		// first conversion put to trash
		// start new with same configuration;
		sleep_with_ADC=1;
		break;
	case 3: //step 3
		update_ring(BAT_RING_TYPE,ADC_Get_Bat_Voltage(ADCW));
    2b44:	20 91 78 00 	lds	r18, 0x0078
    2b48:	30 91 79 00 	lds	r19, 0x0079
    2b4c:	40 e0       	ldi	r20, 0x00	; 0
    2b4e:	50 e0       	ldi	r21, 0x00	; 0
    2b50:	60 e0       	ldi	r22, 0x00	; 0
    2b52:	70 e3       	ldi	r23, 0x30	; 48
    2b54:	81 e1       	ldi	r24, 0x11	; 17
    2b56:	90 e0       	ldi	r25, 0x00	; 0
    2b58:	c0 d7       	rcall	.+3968   	; 0x3ada <__udivmodsi4>
    2b5a:	80 e0       	ldi	r24, 0x00	; 0
    2b5c:	b9 01       	movw	r22, r18
    2b5e:	5a df       	rcall	.-332    	; 0x2a14 <update_ring>

	    // activate voltage divider
	    ADC_ACT_TEMP_P |= (1<<ADC_ACT_TEMP);
    2b60:	8b 9a       	sbi	0x11, 3	; 17
		ADMUX = ADC_TEMP_MUX | (1<<REFS0);
    2b62:	82 e4       	ldi	r24, 0x42	; 66
    2b64:	80 93 7c 00 	sts	0x007C, r24
		sleep_with_ADC=1;
    2b68:	81 e0       	ldi	r24, 0x01	; 1
    2b6a:	80 93 37 02 	sts	0x0237, r24
    2b6e:	90 c0       	rjmp	.+288    	; 0x2c90 <task_ADC+0x182>
		break;
	case 4: //step 4
        dummy_adc = ADCW;
    2b70:	80 91 78 00 	lds	r24, 0x0078
    2b74:	90 91 79 00 	lds	r25, 0x0079
    2b78:	90 93 3d 02 	sts	0x023D, r25
    2b7c:	80 93 3c 02 	sts	0x023C, r24
    2b80:	f3 cf       	rjmp	.-26     	; 0x2b68 <task_ADC+0x5a>
	    sleep_with_ADC=1;
	    break;
	case 5: //step 5
        {
            int16_t ad = ADCW;
    2b82:	40 91 78 00 	lds	r20, 0x0078
    2b86:	50 91 79 00 	lds	r21, 0x0079
            if ((ad>dummy_adc+ADC_TOLERANCE)||(ad<dummy_adc-ADC_TOLERANCE)) { 
    2b8a:	20 91 3c 02 	lds	r18, 0x023C
    2b8e:	30 91 3d 02 	lds	r19, 0x023D
    2b92:	c9 01       	movw	r24, r18
    2b94:	01 96       	adiw	r24, 0x01	; 1
    2b96:	84 17       	cp	r24, r20
    2b98:	95 07       	cpc	r25, r21
    2b9a:	2c f0       	brlt	.+10     	; 0x2ba6 <task_ADC+0x98>
    2b9c:	21 50       	subi	r18, 0x01	; 1
    2b9e:	30 40       	sbci	r19, 0x00	; 0
    2ba0:	42 17       	cp	r20, r18
    2ba2:	53 07       	cpc	r21, r19
    2ba4:	44 f4       	brge	.+16     	; 0x2bb6 <task_ADC+0xa8>
                // adc noise protection, repeat measure
                dummy_adc=ad;
    2ba6:	50 93 3d 02 	sts	0x023D, r21
    2baa:	40 93 3c 02 	sts	0x023C, r20
                state_ADC=4;
    2bae:	84 e0       	ldi	r24, 0x04	; 4
    2bb0:	80 93 47 02 	sts	0x0247, r24
    2bb4:	6d c0       	rjmp	.+218    	; 0x2c90 <task_ADC+0x182>
 ******************************************************************************/
static int16_t ADC_Convert_To_Degree(int16_t adc)
{
    int16_t dummy;
    uint8_t i;
    int16_t kx=TEMP_CAL_OFFSET+(int16_t)kx_d[0];
    2bb6:	80 91 6f 03 	lds	r24, 0x036F
    2bba:	28 2f       	mov	r18, r24
    2bbc:	30 e0       	ldi	r19, 0x00	; 0
    2bbe:	20 50       	subi	r18, 0x00	; 0
    2bc0:	3f 4f       	sbci	r19, 0xFF	; 255
    2bc2:	e0 e7       	ldi	r30, 0x70	; 112
    2bc4:	f3 e0       	ldi	r31, 0x03	; 3
    2bc6:	01 e0       	ldi	r16, 0x01	; 1
    for (i=1; i<TEMP_CAL_N-1; i++){
        if (adc<kx+kx_d[i]){
    2bc8:	80 81       	ld	r24, Z
    2bca:	b9 01       	movw	r22, r18
    2bcc:	68 0f       	add	r22, r24
    2bce:	71 1d       	adc	r23, r1
    2bd0:	46 17       	cp	r20, r22
    2bd2:	57 07       	cpc	r21, r23
    2bd4:	34 f0       	brlt	.+12     	; 0x2be2 <task_ADC+0xd4>
static int16_t ADC_Convert_To_Degree(int16_t adc)
{
    int16_t dummy;
    uint8_t i;
    int16_t kx=TEMP_CAL_OFFSET+(int16_t)kx_d[0];
    for (i=1; i<TEMP_CAL_N-1; i++){
    2bd6:	0f 5f       	subi	r16, 0xFF	; 255
    2bd8:	31 96       	adiw	r30, 0x01	; 1
    2bda:	06 30       	cpi	r16, 0x06	; 6
    2bdc:	19 f0       	breq	.+6      	; 0x2be4 <task_ADC+0xd6>
    2bde:	9b 01       	movw	r18, r22
    2be0:	f3 cf       	rjmp	.-26     	; 0x2bc8 <task_ADC+0xba>
    2be2:	b9 01       	movw	r22, r18
                dummy_adc=ad;
                state_ADC=4;
                break;
            }
            int16_t t = ADC_Convert_To_Degree(ad);
            update_ring(TEMP_RING_TYPE,t);
    2be4:	10 e0       	ldi	r17, 0x00	; 0
    2be6:	81 e0       	ldi	r24, 0x01	; 1
    2be8:	90 e0       	ldi	r25, 0x00	; 0
    2bea:	80 1b       	sub	r24, r16
    2bec:	91 0b       	sbc	r25, r17
    2bee:	24 ef       	ldi	r18, 0xF4	; 244
    2bf0:	31 e0       	ldi	r19, 0x01	; 1
    2bf2:	82 9f       	mul	r24, r18
    2bf4:	70 01       	movw	r14, r0
    2bf6:	83 9f       	mul	r24, r19
    2bf8:	f0 0c       	add	r15, r0
    2bfa:	92 9f       	mul	r25, r18
    2bfc:	f0 0c       	add	r15, r0
    2bfe:	11 24       	eor	r1, r1
    2c00:	8c ea       	ldi	r24, 0xAC	; 172
    2c02:	9d e0       	ldi	r25, 0x0D	; 13
    2c04:	e8 0e       	add	r14, r24
    2c06:	f9 1e       	adc	r15, r25
    2c08:	46 1b       	sub	r20, r22
    2c0a:	57 0b       	sbc	r21, r23
    2c0c:	ba 01       	movw	r22, r20
    2c0e:	88 27       	eor	r24, r24
    2c10:	77 fd       	sbrc	r23, 7
    2c12:	80 95       	com	r24
    2c14:	98 2f       	mov	r25, r24
    2c16:	2c e0       	ldi	r18, 0x0C	; 12
    2c18:	3e ef       	ldi	r19, 0xFE	; 254
    2c1a:	4f ef       	ldi	r20, 0xFF	; 255
    2c1c:	5f ef       	ldi	r21, 0xFF	; 255
    2c1e:	fe d6       	rcall	.+3580   	; 0x3a1c <__mulsi3>
    2c20:	01 59       	subi	r16, 0x91	; 145
    2c22:	1c 4f       	sbci	r17, 0xFC	; 252
    2c24:	f8 01       	movw	r30, r16
    2c26:	20 81       	ld	r18, Z
    2c28:	30 e0       	ldi	r19, 0x00	; 0
    2c2a:	40 e0       	ldi	r20, 0x00	; 0
    2c2c:	50 e0       	ldi	r21, 0x00	; 0
    2c2e:	77 d7       	rcall	.+3822   	; 0x3b1e <__divmodsi4>
    2c30:	e2 0e       	add	r14, r18
    2c32:	f3 1e       	adc	r15, r19
    2c34:	81 e0       	ldi	r24, 0x01	; 1
    2c36:	b7 01       	movw	r22, r14
    2c38:	ed de       	rcall	.-550    	; 0x2a14 <update_ring>
static uint8_t ring_used=1; 
static int32_t ring_sum [2] = {0,0};
int16_t ring_average [2] = {0,0};

static void shift_ring(void) {
	ring_pos = (ring_pos+1) % AVERAGE_LEN;
    2c3a:	80 91 46 02 	lds	r24, 0x0246
    2c3e:	90 e0       	ldi	r25, 0x00	; 0
    2c40:	01 96       	adiw	r24, 0x01	; 1
    2c42:	6f e0       	ldi	r22, 0x0F	; 15
    2c44:	70 e0       	ldi	r23, 0x00	; 0
    2c46:	36 d7       	rcall	.+3692   	; 0x3ab4 <__divmodhi4>
    2c48:	80 93 46 02 	sts	0x0246, r24
	if (ring_pos==0) {
    2c4c:	88 23       	and	r24, r24
    2c4e:	99 f4       	brne	.+38     	; 0x2c76 <task_ADC+0x168>
        ring_buf_temp_avgs[ring_buf_temp_avgs_pos]=temp_average;
    2c50:	80 91 13 03 	lds	r24, 0x0313
    2c54:	90 e0       	ldi	r25, 0x00	; 0
    2c56:	fc 01       	movw	r30, r24
    2c58:	ee 0f       	add	r30, r30
    2c5a:	ff 1f       	adc	r31, r31
    2c5c:	ec 5e       	subi	r30, 0xEC	; 236
    2c5e:	fc 4f       	sbci	r31, 0xFC	; 252
    2c60:	20 91 3a 02 	lds	r18, 0x023A
    2c64:	30 91 3b 02 	lds	r19, 0x023B
    2c68:	31 83       	std	Z+1, r19	; 0x01
    2c6a:	20 83       	st	Z, r18
        ring_buf_temp_avgs_pos = (ring_buf_temp_avgs_pos+1)%AVGS_BUFFER_LEN;
    2c6c:	01 96       	adiw	r24, 0x01	; 1
    2c6e:	8f 71       	andi	r24, 0x1F	; 31
    2c70:	90 70       	andi	r25, 0x00	; 0
    2c72:	80 93 13 03 	sts	0x0313, r24
    }
	if (ring_used<AVERAGE_LEN) {
    2c76:	80 91 13 01 	lds	r24, 0x0113
    2c7a:	8f 30       	cpi	r24, 0x0F	; 15
    2c7c:	18 f4       	brcc	.+6      	; 0x2c84 <task_ADC+0x176>
		ring_used++;
    2c7e:	8f 5f       	subi	r24, 0xFF	; 255
    2c80:	80 93 13 01 	sts	0x0113, r24
            shift_ring();
        }
        // do not use break here
	default:
		// deactivate voltage divider
    	ADC_ACT_TEMP_P &= ~(1<<ADC_ACT_TEMP);
    2c84:	8b 98       	cbi	0x11, 3	; 17
	    // set ADC control and status register / disable ADC
	    ADCSRA = (0<<ADEN)|(1<<ADPS2)|(1<<ADPS0)|(1<<ADIE); 
    2c86:	8d e0       	ldi	r24, 0x0D	; 13
    2c88:	80 93 7a 00 	sts	0x007A, r24
		// power down ADC
		power_down_ADC();
    2c8c:	80 93 64 00 	sts	0x0064, r24
		break;
	}
	return sleep_with_ADC;
}
    2c90:	80 91 37 02 	lds	r24, 0x0237
    2c94:	1f 91       	pop	r17
    2c96:	0f 91       	pop	r16
    2c98:	ff 90       	pop	r15
    2c9a:	ef 90       	pop	r14
    2c9c:	08 95       	ret

00002c9e <__vector_19>:
}
#else
// optimized
ISR_NAKED ISR (ADC_vect) {
    /* note: __zero_reg__ is not used, It can be reused on some other user assembler code */ 
    asm volatile(
    2c9e:	f2 9a       	sbi	0x1e, 2	; 30
    2ca0:	18 95       	reti

00002ca2 <EEPROM_read>:
 *
 ******************************************************************************/

uint8_t EEPROM_read(uint16_t address) {
	/* Wait for completion of previous write */
	while(EECR & (1<<EEWE))
    2ca2:	f9 99       	sbic	0x1f, 1	; 31
    2ca4:	fe cf       	rjmp	.-4      	; 0x2ca2 <EEPROM_read>
		;
	EEAR = address;
    2ca6:	92 bd       	out	0x22, r25	; 34
    2ca8:	81 bd       	out	0x21, r24	; 33
	EECR |= (1<<EERE);
    2caa:	f8 9a       	sbi	0x1f, 0	; 31
	return EEDR;
    2cac:	80 b5       	in	r24, 0x20	; 32
}
    2cae:	08 95       	ret

00002cb0 <config_read>:
 *  config_read
 *	it is similar as EEPROM_read, but optimized for special usage
 ******************************************************************************/
uint8_t config_read(uint8_t cfg_address, uint8_t cfg_type) {
	/* Wait for completion of previous write */
	while(EECR & (1<<EEWE))
    2cb0:	f9 99       	sbic	0x1f, 1	; 31
    2cb2:	fe cf       	rjmp	.-4      	; 0x2cb0 <config_read>
		;
	EEAR = (((uint16_t) cfg_address) << 2) + cfg_type + (uint16_t)(&ee_config);
    2cb4:	90 e0       	ldi	r25, 0x00	; 0
    2cb6:	88 0f       	add	r24, r24
    2cb8:	99 1f       	adc	r25, r25
    2cba:	88 0f       	add	r24, r24
    2cbc:	99 1f       	adc	r25, r25
    2cbe:	86 0f       	add	r24, r22
    2cc0:	91 1d       	adc	r25, r1
    2cc2:	80 54       	subi	r24, 0x40	; 64
    2cc4:	9f 4f       	sbci	r25, 0xFF	; 255
    2cc6:	92 bd       	out	0x22, r25	; 34
    2cc8:	81 bd       	out	0x21, r24	; 33
	EECR |= (1<<EERE);
    2cca:	f8 9a       	sbi	0x1f, 0	; 31
	return EEDR;
    2ccc:	80 b5       	in	r24, 0x20	; 32
}
    2cce:	08 95       	ret

00002cd0 <EEPROM_write>:
 *  \note private function
 *  \note write to ee_config is limited 
 ******************************************************************************/
#define config_write(cfg_address,data) (EEPROM_write((((uint16_t) cfg_address) << 2) + CONFIG_VALUE + (uint16_t)(&ee_config),data))

static void EEPROM_write(uint16_t address, uint8_t data) {
    2cd0:	9c 01       	movw	r18, r24
	/* Wait for completion of previous write */
	if ((address >= (uint16_t)&ee_config) && (address & 3)) {
    2cd2:	80 e0       	ldi	r24, 0x00	; 0
    2cd4:	20 3c       	cpi	r18, 0xC0	; 192
    2cd6:	38 07       	cpc	r19, r24
    2cd8:	28 f0       	brcs	.+10     	; 0x2ce4 <EEPROM_write+0x14>
    2cda:	c9 01       	movw	r24, r18
    2cdc:	83 70       	andi	r24, 0x03	; 3
    2cde:	90 70       	andi	r25, 0x00	; 0
    2ce0:	89 2b       	or	r24, r25
    2ce2:	49 f4       	brne	.+18     	; 0x2cf6 <EEPROM_write+0x26>
	  // write to eeconfig area is allowed only to column 0 / alligned to 4
    return; // write protection for configuration default/min/max data
  }
  while(EECR & (1<<EEWE))
    2ce4:	f9 99       	sbic	0x1f, 1	; 31
    2ce6:	fe cf       	rjmp	.-4      	; 0x2ce4 <EEPROM_write+0x14>
		;
	EEAR = address;
    2ce8:	32 bd       	out	0x22, r19	; 34
    2cea:	21 bd       	out	0x21, r18	; 33
	EEDR = data;
    2cec:	60 bd       	out	0x20, r22	; 32
	asm ("cli");
    2cee:	f8 94       	cli
	EECR |= (1<<EEMWE);
    2cf0:	fa 9a       	sbi	0x1f, 2	; 31
	EECR |= (1<<EEWE);
    2cf2:	f9 9a       	sbi	0x1f, 1	; 31
	asm ("sei");
    2cf4:	78 94       	sei
    2cf6:	08 95       	ret

00002cf8 <eeprom_config_save>:
 *******************************************************************************
 *  Update configuration storage
 *
 *  \note
 ******************************************************************************/
void eeprom_config_save(uint8_t idx) {
    2cf8:	ef 92       	push	r14
    2cfa:	ff 92       	push	r15
    2cfc:	0f 93       	push	r16
    2cfe:	1f 93       	push	r17
    2d00:	cf 93       	push	r28
    2d02:	df 93       	push	r29
    2d04:	08 2f       	mov	r16, r24
	if (idx<CONFIG_RAW_SIZE) {
    2d06:	80 33       	cpi	r24, 0x30	; 48
    2d08:	18 f5       	brcc	.+70     	; 0x2d50 <eeprom_config_save+0x58>
		if (config_raw[idx] != config_value(idx)) {
    2d0a:	e8 2e       	mov	r14, r24
    2d0c:	ff 24       	eor	r15, r15
    2d0e:	e7 01       	movw	r28, r14
    2d10:	ca 5a       	subi	r28, 0xAA	; 170
    2d12:	dc 4f       	sbci	r29, 0xFC	; 252
    2d14:	18 81       	ld	r17, Y
    2d16:	60 e0       	ldi	r22, 0x00	; 0
    2d18:	cb df       	rcall	.-106    	; 0x2cb0 <config_read>
    2d1a:	18 17       	cp	r17, r24
    2d1c:	c9 f0       	breq	.+50     	; 0x2d50 <eeprom_config_save+0x58>
			if ((config_raw[idx] < config_min(idx)) //min
    2d1e:	18 81       	ld	r17, Y
    2d20:	80 2f       	mov	r24, r16
    2d22:	62 e0       	ldi	r22, 0x02	; 2
    2d24:	c5 df       	rcall	.-118    	; 0x2cb0 <config_read>
    2d26:	18 17       	cp	r17, r24
    2d28:	30 f0       	brcs	.+12     	; 0x2d36 <eeprom_config_save+0x3e>
    2d2a:	18 81       	ld	r17, Y
    2d2c:	80 2f       	mov	r24, r16
    2d2e:	63 e0       	ldi	r22, 0x03	; 3
    2d30:	bf df       	rcall	.-130    	; 0x2cb0 <config_read>
    2d32:	81 17       	cp	r24, r17
    2d34:	20 f4       	brcc	.+8      	; 0x2d3e <eeprom_config_save+0x46>
		 	|| (config_raw[idx] > config_max(idx))) { //max
				config_raw[idx] = config_default(idx); // default value
    2d36:	80 2f       	mov	r24, r16
    2d38:	61 e0       	ldi	r22, 0x01	; 1
    2d3a:	ba df       	rcall	.-140    	; 0x2cb0 <config_read>
    2d3c:	88 83       	st	Y, r24
			}
			config_write(idx, config_raw[idx]);
    2d3e:	ee 0c       	add	r14, r14
    2d40:	ff 1c       	adc	r15, r15
    2d42:	ee 0c       	add	r14, r14
    2d44:	ff 1c       	adc	r15, r15
    2d46:	c7 01       	movw	r24, r14
    2d48:	80 54       	subi	r24, 0x40	; 64
    2d4a:	9f 4f       	sbci	r25, 0xFF	; 255
    2d4c:	68 81       	ld	r22, Y
    2d4e:	c0 df       	rcall	.-128    	; 0x2cd0 <EEPROM_write>
		}
	}
}
    2d50:	cd b7       	in	r28, 0x3d	; 61
    2d52:	de b7       	in	r29, 0x3e	; 62
    2d54:	e6 e0       	ldi	r30, 0x06	; 6
    2d56:	26 c7       	rjmp	.+3660   	; 0x3ba4 <__epilogue_restores__+0x18>

00002d58 <eeprom_config_init>:
 *  Init configuration storage
 *
 *  \note
 ******************************************************************************/

void eeprom_config_init(bool restore_default) {
    2d58:	ff 92       	push	r15
    2d5a:	0f 93       	push	r16
    2d5c:	1f 93       	push	r17
    2d5e:	cf 93       	push	r28
    2d60:	df 93       	push	r29
    2d62:	f8 2e       	mov	r15, r24
    2d64:	c6 e5       	ldi	r28, 0x56	; 86
    2d66:	d3 e0       	ldi	r29, 0x03	; 3
    2d68:	00 e0       	ldi	r16, 0x00	; 0
	
	uint16_t i;
	uint8_t *config_ptr = config_raw;
	for (i=0;i<CONFIG_RAW_SIZE;i++) {
	    if (restore_default) {
    2d6a:	ff 20       	and	r15, r15
    2d6c:	81 f4       	brne	.+32     	; 0x2d8e <eeprom_config_init+0x36>
   		   *config_ptr = config_default(i); // default value
   	    } else {
   		   *config_ptr =  config_value(i);
    2d6e:	80 2f       	mov	r24, r16
    2d70:	60 e0       	ldi	r22, 0x00	; 0
    2d72:	9e df       	rcall	.-196    	; 0x2cb0 <config_read>
    2d74:	18 2f       	mov	r17, r24
    2d76:	88 83       	st	Y, r24
    		if ((*config_ptr < config_min(i)) //min
    2d78:	80 2f       	mov	r24, r16
    2d7a:	62 e0       	ldi	r22, 0x02	; 2
    2d7c:	99 df       	rcall	.-206    	; 0x2cb0 <config_read>
    2d7e:	18 17       	cp	r17, r24
    2d80:	30 f0       	brcs	.+12     	; 0x2d8e <eeprom_config_init+0x36>
    2d82:	18 81       	ld	r17, Y
    2d84:	80 2f       	mov	r24, r16
    2d86:	63 e0       	ldi	r22, 0x03	; 3
    2d88:	93 df       	rcall	.-218    	; 0x2cb0 <config_read>
    2d8a:	81 17       	cp	r24, r17
    2d8c:	20 f4       	brcc	.+8      	; 0x2d96 <eeprom_config_init+0x3e>
    		 || (*config_ptr > config_max(i))) { //max
    			*config_ptr = config_default(i); // default value
    2d8e:	80 2f       	mov	r24, r16
    2d90:	61 e0       	ldi	r22, 0x01	; 1
    2d92:	8e df       	rcall	.-228    	; 0x2cb0 <config_read>
    2d94:	88 83       	st	Y, r24
    		}
        }
		eeprom_config_save(i); // update if default value is restored
    2d96:	80 2f       	mov	r24, r16
    2d98:	af df       	rcall	.-162    	; 0x2cf8 <eeprom_config_save>
    2d9a:	0f 5f       	subi	r16, 0xFF	; 255

void eeprom_config_init(bool restore_default) {
	
	uint16_t i;
	uint8_t *config_ptr = config_raw;
	for (i=0;i<CONFIG_RAW_SIZE;i++) {
    2d9c:	00 33       	cpi	r16, 0x30	; 48
    2d9e:	11 f0       	breq	.+4      	; 0x2da4 <eeprom_config_init+0x4c>
    		 || (*config_ptr > config_max(i))) { //max
    			*config_ptr = config_default(i); // default value
    		}
        }
		eeprom_config_save(i); // update if default value is restored
		config_ptr++;
    2da0:	21 96       	adiw	r28, 0x01	; 1
    2da2:	e3 cf       	rjmp	.-58     	; 0x2d6a <eeprom_config_init+0x12>
	}
}
    2da4:	cd b7       	in	r28, 0x3d	; 61
    2da6:	de b7       	in	r29, 0x3e	; 62
    2da8:	e5 e0       	ldi	r30, 0x05	; 5
    2daa:	fd c6       	rjmp	.+3578   	; 0x3ba6 <__epilogue_restores__+0x1a>

00002dac <eeprom_timers_read_raw>:
 *  read timer from storage
 *
 *  \note
 ******************************************************************************/

uint16_t eeprom_timers_read_raw(uint8_t offset) {
    2dac:	98 2f       	mov	r25, r24
    if (offset != timmers_patch_offset) {
    2dae:	80 91 14 01 	lds	r24, 0x0114
    2db2:	98 17       	cp	r25, r24
    2db4:	d9 f0       	breq	.+54     	; 0x2dec <eeprom_timers_read_raw+0x40>
        uint16_t eeaddr = (uint16_t)offset * (uint16_t)sizeof(ee_timers[0][0]) + (uint16_t)ee_timers;
    2db6:	29 2f       	mov	r18, r25
    2db8:	30 e0       	ldi	r19, 0x00	; 0
    2dba:	22 0f       	add	r18, r18
    2dbc:	33 1f       	adc	r19, r19
    2dbe:	2c 5f       	subi	r18, 0xFC	; 252
    2dc0:	3f 4f       	sbci	r19, 0xFF	; 255
 *
 ******************************************************************************/

uint8_t EEPROM_read(uint16_t address) {
	/* Wait for completion of previous write */
	while(EECR & (1<<EEWE))
    2dc2:	f9 99       	sbic	0x1f, 1	; 31
    2dc4:	fe cf       	rjmp	.-4      	; 0x2dc2 <eeprom_timers_read_raw+0x16>
 ******************************************************************************/

uint16_t eeprom_timers_read_raw(uint8_t offset) {
    if (offset != timmers_patch_offset) {
        uint16_t eeaddr = (uint16_t)offset * (uint16_t)sizeof(ee_timers[0][0]) + (uint16_t)ee_timers;
    	return (EEPROM_read(eeaddr+1)<<8) + EEPROM_read(eeaddr); //litle endian
    2dc6:	c9 01       	movw	r24, r18
    2dc8:	01 96       	adiw	r24, 0x01	; 1

uint8_t EEPROM_read(uint16_t address) {
	/* Wait for completion of previous write */
	while(EECR & (1<<EEWE))
		;
	EEAR = address;
    2dca:	92 bd       	out	0x22, r25	; 34
    2dcc:	81 bd       	out	0x21, r24	; 33
	EECR |= (1<<EERE);
    2dce:	f8 9a       	sbi	0x1f, 0	; 31
	return EEDR;
    2dd0:	40 b5       	in	r20, 0x20	; 32
 *
 ******************************************************************************/

uint8_t EEPROM_read(uint16_t address) {
	/* Wait for completion of previous write */
	while(EECR & (1<<EEWE))
    2dd2:	f9 99       	sbic	0x1f, 1	; 31
    2dd4:	fe cf       	rjmp	.-4      	; 0x2dd2 <eeprom_timers_read_raw+0x26>
		;
	EEAR = address;
    2dd6:	32 bd       	out	0x22, r19	; 34
    2dd8:	21 bd       	out	0x21, r18	; 33
	EECR |= (1<<EERE);
    2dda:	f8 9a       	sbi	0x1f, 0	; 31
	return EEDR;
    2ddc:	20 b5       	in	r18, 0x20	; 32
 ******************************************************************************/

uint16_t eeprom_timers_read_raw(uint8_t offset) {
    if (offset != timmers_patch_offset) {
        uint16_t eeaddr = (uint16_t)offset * (uint16_t)sizeof(ee_timers[0][0]) + (uint16_t)ee_timers;
    	return (EEPROM_read(eeaddr+1)<<8) + EEPROM_read(eeaddr); //litle endian
    2dde:	94 2f       	mov	r25, r20
    2de0:	80 e0       	ldi	r24, 0x00	; 0
    2de2:	ac 01       	movw	r20, r24
    2de4:	42 0f       	add	r20, r18
    2de6:	51 1d       	adc	r21, r1
    2de8:	9a 01       	movw	r18, r20
    2dea:	04 c0       	rjmp	.+8      	; 0x2df4 <eeprom_timers_read_raw+0x48>
    } else {
        return timmers_patch_data;
    2dec:	20 91 54 03 	lds	r18, 0x0354
    2df0:	30 91 55 03 	lds	r19, 0x0355
    }
}
    2df4:	c9 01       	movw	r24, r18
    2df6:	08 95       	ret

00002df8 <eeprom_timers_write_raw>:
 *******************************************************************************
 *  Update timer storage for dow and slot
 *
 *  \note
 ******************************************************************************/
void eeprom_timers_write_raw(uint8_t offset, uint16_t value) {
    2df8:	ff 92       	push	r15
    2dfa:	0f 93       	push	r16
    2dfc:	1f 93       	push	r17
    2dfe:	f7 2e       	mov	r15, r23
    if (offset>=(uint8_t)(sizeof(ee_timers)/sizeof(ee_timers[0][0]))) return; // EEPROM protection
    2e00:	80 34       	cpi	r24, 0x40	; 64
    2e02:	60 f4       	brcc	.+24     	; 0x2e1c <eeprom_timers_write_raw+0x24>
    uint16_t eeaddr = (uint16_t)offset * (uint16_t)sizeof(ee_timers[0][0]) + (uint16_t)ee_timers;
    2e04:	08 2f       	mov	r16, r24
    2e06:	10 e0       	ldi	r17, 0x00	; 0
    2e08:	00 0f       	add	r16, r16
    2e0a:	11 1f       	adc	r17, r17
    2e0c:	0c 5f       	subi	r16, 0xFC	; 252
    2e0e:	1f 4f       	sbci	r17, 0xFF	; 255
    EEPROM_write(eeaddr, value&0xff); //litle endian
    2e10:	c8 01       	movw	r24, r16
    2e12:	5e df       	rcall	.-324    	; 0x2cd0 <EEPROM_write>
    EEPROM_write(eeaddr+1 , (value>>8)); //litle endian
    2e14:	c8 01       	movw	r24, r16
    2e16:	01 96       	adiw	r24, 0x01	; 1
    2e18:	6f 2d       	mov	r22, r15
    2e1a:	5a df       	rcall	.-332    	; 0x2cd0 <EEPROM_write>
}
    2e1c:	1f 91       	pop	r17
    2e1e:	0f 91       	pop	r16
    2e20:	ff 90       	pop	r15
    2e22:	08 95       	ret

00002e24 <clr_show1>:
        }
    }
*/


static void clr_show1(uint8_t seg1) {
    2e24:	1f 93       	push	r17
    2e26:	18 2f       	mov	r17, r24
    LCD_AllSegments(LCD_MODE_OFF);
    2e28:	80 e0       	ldi	r24, 0x00	; 0
    2e2a:	e6 d3       	rcall	.+1996   	; 0x35f8 <LCD_AllSegments>
    LCD_SetSeg(seg1, LCD_MODE_ON);
    2e2c:	81 2f       	mov	r24, r17
    2e2e:	63 e0       	ldi	r22, 0x03	; 3
    2e30:	2f d4       	rcall	.+2142   	; 0x3690 <LCD_SetSeg>
}
    2e32:	1f 91       	pop	r17
    2e34:	08 95       	ret

00002e36 <show_selected_temperature_type>:
    LCD_SetSeg(seg1, LCD_MODE_ON);
    LCD_SetSeg(seg2, LCD_MODE_ON);
    LCD_SetSeg(seg3, LCD_MODE_ON);
}

static void show_selected_temperature_type (uint8_t type, uint8_t mode) {
    2e36:	0f 93       	push	r16
    2e38:	1f 93       	push	r17
    2e3a:	08 2f       	mov	r16, r24
    2e3c:	16 2f       	mov	r17, r22
    //  temperature0    SNOW         
    //  temperature1         MOON    
    //  temperature2         MOON SUN
    //  temperature3              SUN
    LCD_SetSeg(LCD_SEG_SNOW,((type==temperature0)
    2e3e:	81 11       	cpse	r24, r1
    2e40:	60 e0       	ldi	r22, 0x00	; 0
    2e42:	8c e2       	ldi	r24, 0x2C	; 44
    2e44:	25 d4       	rcall	.+2122   	; 0x3690 <LCD_SetSeg>
        ?mode:LCD_MODE_OFF));
    LCD_SetSeg(LCD_SEG_MOON,(((type==temperature1)||(type==temperature2))
    2e46:	80 2f       	mov	r24, r16
    2e48:	81 50       	subi	r24, 0x01	; 1
    2e4a:	82 30       	cpi	r24, 0x02	; 2
    2e4c:	10 f0       	brcs	.+4      	; 0x2e52 <show_selected_temperature_type+0x1c>
    2e4e:	60 e0       	ldi	r22, 0x00	; 0
    2e50:	01 c0       	rjmp	.+2      	; 0x2e54 <show_selected_temperature_type+0x1e>
    2e52:	61 2f       	mov	r22, r17
    2e54:	85 e4       	ldi	r24, 0x45	; 69
    2e56:	1c d4       	rcall	.+2104   	; 0x3690 <LCD_SetSeg>
        ?mode:LCD_MODE_OFF));
    LCD_SetSeg(LCD_SEG_SUN,((type>=temperature2)
    2e58:	02 30       	cpi	r16, 0x02	; 2
    2e5a:	08 f4       	brcc	.+2      	; 0x2e5e <show_selected_temperature_type+0x28>
    2e5c:	10 e0       	ldi	r17, 0x00	; 0
    2e5e:	8d e2       	ldi	r24, 0x2D	; 45
    2e60:	61 2f       	mov	r22, r17
    2e62:	16 d4       	rcall	.+2092   	; 0x3690 <LCD_SetSeg>
        ?mode:LCD_MODE_OFF));
}
    2e64:	1f 91       	pop	r17
    2e66:	0f 91       	pop	r16
    2e68:	08 95       	ret

00002e6a <menu_view>:

/*!
 *******************************************************************************
 * \brief menu View
 ******************************************************************************/
void menu_view(bool update) {
    2e6a:	1f 93       	push	r17
    2e6c:	18 2f       	mov	r17, r24
  switch (menu_state) {
    2e6e:	80 91 8a 03 	lds	r24, 0x038A
    2e72:	e8 2f       	mov	r30, r24
    2e74:	f0 e0       	ldi	r31, 0x00	; 0
    2e76:	e7 31       	cpi	r30, 0x17	; 23
    2e78:	f1 05       	cpc	r31, r1
    2e7a:	08 f0       	brcs	.+2      	; 0x2e7e <menu_view+0x14>
    2e7c:	76 c1       	rjmp	.+748    	; 0x316a <menu_view+0x300>
    2e7e:	e2 5a       	subi	r30, 0xA2	; 162
    2e80:	ff 4f       	sbci	r31, 0xFF	; 255
    2e82:	9f c6       	rjmp	.+3390   	; 0x3bc2 <__tablejump2__>
    case menu_startup:
        LCD_AllSegments(LCD_MODE_ON);                   // all segments on
    2e84:	83 e0       	ldi	r24, 0x03	; 3
    2e86:	b8 d3       	rcall	.+1904   	; 0x35f8 <LCD_AllSegments>
    2e88:	70 c1       	rjmp	.+736    	; 0x316a <menu_view+0x300>
        break;
    case menu_version:
        clr_show1(LCD_SEG_COL1);
    2e8a:	8b e3       	ldi	r24, 0x3B	; 59
    2e8c:	cb df       	rcall	.-106    	; 0x2e24 <clr_show1>
        LCD_PrintHexW(VERSION_N,LCD_MODE_ON);
    2e8e:	80 e0       	ldi	r24, 0x00	; 0
    2e90:	91 e0       	ldi	r25, 0x01	; 1
    2e92:	63 e0       	ldi	r22, 0x03	; 3
    2e94:	1b d5       	rcall	.+2614   	; 0x38cc <LCD_PrintHexW>
    2e96:	69 c1       	rjmp	.+722    	; 0x316a <menu_view+0x300>
        break; 
    case menu_set_year:
        LCD_AllSegments(LCD_MODE_OFF); // all segments off
    2e98:	80 e0       	ldi	r24, 0x00	; 0
    2e9a:	ae d3       	rcall	.+1884   	; 0x35f8 <LCD_AllSegments>
        LCD_PrintDecW(RTC_GetYearYYYY(),LCD_MODE_BLINK_1);
    2e9c:	80 91 0a 01 	lds	r24, 0x010A
    2ea0:	90 e0       	ldi	r25, 0x00	; 0
    2ea2:	80 53       	subi	r24, 0x30	; 48
    2ea4:	98 4f       	sbci	r25, 0xF8	; 248
    2ea6:	61 e0       	ldi	r22, 0x01	; 1
    2ea8:	8a d4       	rcall	.+2324   	; 0x37be <LCD_PrintDecW>
    2eaa:	5f c1       	rjmp	.+702    	; 0x316a <menu_view+0x300>
       break;
    case menu_set_month:
    case menu_set_day:
        clr_show1(LCD_SEG_COL1);           // decimal point
    2eac:	8b e3       	ldi	r24, 0x3B	; 59
    2eae:	ba df       	rcall	.-140    	; 0x2e24 <clr_show1>
        LCD_PrintDec(RTC_GetMonth(), 0, ((menu_state==menu_set_month)?LCD_MODE_BLINK_1:LCD_MODE_ON));
    2eb0:	90 91 0b 01 	lds	r25, 0x010B
    2eb4:	80 91 8a 03 	lds	r24, 0x038A
    2eb8:	80 31       	cpi	r24, 0x10	; 16
    2eba:	11 f0       	breq	.+4      	; 0x2ec0 <menu_view+0x56>
    2ebc:	43 e0       	ldi	r20, 0x03	; 3
    2ebe:	01 c0       	rjmp	.+2      	; 0x2ec2 <menu_view+0x58>
    2ec0:	41 e0       	ldi	r20, 0x01	; 1
    2ec2:	89 2f       	mov	r24, r25
    2ec4:	60 e0       	ldi	r22, 0x00	; 0
    2ec6:	61 d4       	rcall	.+2242   	; 0x378a <LCD_PrintDec>
        LCD_PrintDec(RTC_GetDay(), 2, ((menu_state==menu_set_day)?LCD_MODE_BLINK_1:LCD_MODE_ON));
    2ec8:	90 91 0c 01 	lds	r25, 0x010C
    2ecc:	80 91 8a 03 	lds	r24, 0x038A
    2ed0:	81 31       	cpi	r24, 0x11	; 17
    2ed2:	11 f0       	breq	.+4      	; 0x2ed8 <menu_view+0x6e>
    2ed4:	43 e0       	ldi	r20, 0x03	; 3
    2ed6:	01 c0       	rjmp	.+2      	; 0x2eda <menu_view+0x70>
    2ed8:	41 e0       	ldi	r20, 0x01	; 1
    2eda:	89 2f       	mov	r24, r25
    2edc:	62 e0       	ldi	r22, 0x02	; 2
    2ede:	21 c0       	rjmp	.+66     	; 0x2f22 <menu_view+0xb8>
       break;
    case menu_set_hour:
    case menu_set_minute: 
    case menu_home4: // time
        if (update) clr_show2(LCD_SEG_COL1,LCD_SEG_COL2);
    2ee0:	11 23       	and	r17, r17
    2ee2:	41 f0       	breq	.+16     	; 0x2ef4 <menu_view+0x8a>
    LCD_AllSegments(LCD_MODE_OFF);
    LCD_SetSeg(seg1, LCD_MODE_ON);
}

static void clr_show2(uint8_t seg1, uint8_t seg2) {
    LCD_AllSegments(LCD_MODE_OFF);
    2ee4:	80 e0       	ldi	r24, 0x00	; 0
    2ee6:	88 d3       	rcall	.+1808   	; 0x35f8 <LCD_AllSegments>
    LCD_SetSeg(seg1, LCD_MODE_ON);
    2ee8:	8b e3       	ldi	r24, 0x3B	; 59
    2eea:	63 e0       	ldi	r22, 0x03	; 3
    2eec:	d1 d3       	rcall	.+1954   	; 0x3690 <LCD_SetSeg>
    LCD_SetSeg(seg2, LCD_MODE_ON);
    2eee:	83 e2       	ldi	r24, 0x23	; 35
    2ef0:	63 e0       	ldi	r22, 0x03	; 3
    2ef2:	ce d3       	rcall	.+1948   	; 0x3690 <LCD_SetSeg>
       break;
    case menu_set_hour:
    case menu_set_minute: 
    case menu_home4: // time
        if (update) clr_show2(LCD_SEG_COL1,LCD_SEG_COL2);
        LCD_PrintDec(RTC_GetHour(), 2, ((menu_state == menu_set_hour) ? LCD_MODE_BLINK_1 : LCD_MODE_ON));
    2ef4:	90 91 0d 01 	lds	r25, 0x010D
    2ef8:	80 91 8a 03 	lds	r24, 0x038A
    2efc:	82 31       	cpi	r24, 0x12	; 18
    2efe:	11 f0       	breq	.+4      	; 0x2f04 <menu_view+0x9a>
    2f00:	43 e0       	ldi	r20, 0x03	; 3
    2f02:	01 c0       	rjmp	.+2      	; 0x2f06 <menu_view+0x9c>
    2f04:	41 e0       	ldi	r20, 0x01	; 1
    2f06:	89 2f       	mov	r24, r25
    2f08:	62 e0       	ldi	r22, 0x02	; 2
    2f0a:	3f d4       	rcall	.+2174   	; 0x378a <LCD_PrintDec>
        LCD_PrintDec(RTC_GetMinute(), 0, ((menu_state == menu_set_minute) ? LCD_MODE_BLINK_1 : LCD_MODE_ON));
    2f0c:	90 91 0e 01 	lds	r25, 0x010E
    2f10:	80 91 8a 03 	lds	r24, 0x038A
    2f14:	83 31       	cpi	r24, 0x13	; 19
    2f16:	11 f0       	breq	.+4      	; 0x2f1c <menu_view+0xb2>
    2f18:	43 e0       	ldi	r20, 0x03	; 3
    2f1a:	01 c0       	rjmp	.+2      	; 0x2f1e <menu_view+0xb4>
    2f1c:	41 e0       	ldi	r20, 0x01	; 1
    2f1e:	89 2f       	mov	r24, r25
    2f20:	60 e0       	ldi	r22, 0x00	; 0
    2f22:	33 d4       	rcall	.+2150   	; 0x378a <LCD_PrintDec>
    2f24:	22 c1       	rjmp	.+580    	; 0x316a <menu_view+0x300>
       break;                                                               
    case menu_home: // wanted temp / error code / adaptation status
        if (MOTOR_calibration_step>0) {
    2f26:	80 91 00 01 	lds	r24, 0x0100
    2f2a:	18 16       	cp	r1, r24
    2f2c:	d4 f4       	brge	.+52     	; 0x2f62 <menu_view+0xf8>
            clr_show1(LCD_SEG_BAR24);
    2f2e:	8b e0       	ldi	r24, 0x0B	; 11
    2f30:	79 df       	rcall	.-270    	; 0x2e24 <clr_show1>
            LCD_PrintChar(LCD_CHAR_A,3,LCD_MODE_ON);
    2f32:	8a e0       	ldi	r24, 0x0A	; 10
    2f34:	63 e0       	ldi	r22, 0x03	; 3
    2f36:	43 e0       	ldi	r20, 0x03	; 3
    2f38:	fa d3       	rcall	.+2036   	; 0x372e <LCD_PrintChar>
            if (MOTOR_ManuCalibration==-1) LCD_PrintChar(LCD_CHAR_d,2,LCD_MODE_ON);
    2f3a:	80 91 6d 03 	lds	r24, 0x036D
    2f3e:	90 91 6e 03 	lds	r25, 0x036E
    2f42:	8f 5f       	subi	r24, 0xFF	; 255
    2f44:	9f 4f       	sbci	r25, 0xFF	; 255
    2f46:	21 f4       	brne	.+8      	; 0x2f50 <menu_view+0xe6>
    2f48:	8d e0       	ldi	r24, 0x0D	; 13
    2f4a:	62 e0       	ldi	r22, 0x02	; 2
    2f4c:	43 e0       	ldi	r20, 0x03	; 3
    2f4e:	ef d3       	rcall	.+2014   	; 0x372e <LCD_PrintChar>
            LCD_PrintChar(MOTOR_calibration_step%10, 0, LCD_MODE_ON);
    2f50:	80 91 00 01 	lds	r24, 0x0100
    2f54:	6a e0       	ldi	r22, 0x0A	; 10
    2f56:	8d d5       	rcall	.+2842   	; 0x3a72 <__divmodqi4>
    2f58:	89 2f       	mov	r24, r25
    2f5a:	60 e0       	ldi	r22, 0x00	; 0
    2f5c:	43 e0       	ldi	r20, 0x03	; 3
    2f5e:	e7 d3       	rcall	.+1998   	; 0x372e <LCD_PrintChar>
    2f60:	2d c0       	rjmp	.+90     	; 0x2fbc <menu_view+0x152>
            goto MENU_COMMON_STATUS; // optimization
        } else {
            if (update) clr_show1(LCD_SEG_BAR24);
    2f62:	11 23       	and	r17, r17
    2f64:	11 f0       	breq	.+4      	; 0x2f6a <menu_view+0x100>
    2f66:	8b e0       	ldi	r24, 0x0B	; 11
    2f68:	5d df       	rcall	.-326    	; 0x2e24 <clr_show1>
            if (CTL_error!=0) {
    2f6a:	80 91 30 01 	lds	r24, 0x0130
    2f6e:	88 23       	and	r24, r24
    2f70:	b9 f0       	breq	.+46     	; 0x2fa0 <menu_view+0x136>
                if (CTL_error & CTL_ERR_BATT_LOW) {
    2f72:	87 ff       	sbrs	r24, 7
    2f74:	03 c0       	rjmp	.+6      	; 0x2f7c <menu_view+0x112>
                    LCD_PrintStringID(LCD_STRING_BAtt,LCD_MODE_BLINK_1);
    2f76:	8f e0       	ldi	r24, 0x0F	; 15
    2f78:	61 e0       	ldi	r22, 0x01	; 1
    2f7a:	10 c0       	rjmp	.+32     	; 0x2f9c <menu_view+0x132>
                } else if (CTL_error & CTL_ERR_MONTAGE) {
    2f7c:	82 ff       	sbrs	r24, 2
    2f7e:	02 c0       	rjmp	.+4      	; 0x2f84 <menu_view+0x11a>
                    LCD_PrintStringID(LCD_STRING_E2,LCD_MODE_ON);
    2f80:	80 e1       	ldi	r24, 0x10	; 16
    2f82:	0b c0       	rjmp	.+22     	; 0x2f9a <menu_view+0x130>
                } else if (CTL_error & CTL_ERR_MOTOR) {
    2f84:	83 ff       	sbrs	r24, 3
    2f86:	02 c0       	rjmp	.+4      	; 0x2f8c <menu_view+0x122>
                    LCD_PrintStringID(LCD_STRING_E3,LCD_MODE_ON);
    2f88:	81 e1       	ldi	r24, 0x11	; 17
    2f8a:	07 c0       	rjmp	.+14     	; 0x2f9a <menu_view+0x130>
                } else if (CTL_error & CTL_ERR_BATT_WARNING) {
    2f8c:	86 ff       	sbrs	r24, 6
    2f8e:	02 c0       	rjmp	.+4      	; 0x2f94 <menu_view+0x12a>
                    LCD_PrintStringID(LCD_STRING_BAtt,LCD_MODE_ON);
    2f90:	8f e0       	ldi	r24, 0x0F	; 15
    2f92:	03 c0       	rjmp	.+6      	; 0x2f9a <menu_view+0x130>
                } else if (CTL_error & CTL_ERR_RFM_SYNC) {
    2f94:	84 ff       	sbrs	r24, 4
    2f96:	12 c0       	rjmp	.+36     	; 0x2fbc <menu_view+0x152>
                    LCD_PrintStringID(LCD_STRING_E4,LCD_MODE_ON);
    2f98:	82 e1       	ldi	r24, 0x12	; 18
    2f9a:	63 e0       	ldi	r22, 0x03	; 3
    2f9c:	a6 d4       	rcall	.+2380   	; 0x38ea <LCD_PrintStringID>
    2f9e:	0e c0       	rjmp	.+28     	; 0x2fbc <menu_view+0x152>
                }
                goto MENU_COMMON_STATUS; // optimization
            } else {
                if (mode_window()) {
    2fa0:	80 91 2f 01 	lds	r24, 0x012F
    2fa4:	88 23       	and	r24, r24
    2fa6:	11 f0       	breq	.+4      	; 0x2fac <menu_view+0x142>
                    LCD_PrintStringID(LCD_STRING_OPEn,LCD_MODE_ON);
    2fa8:	8e e0       	ldi	r24, 0x0E	; 14
    2faa:	f7 cf       	rjmp	.-18     	; 0x2f9a <menu_view+0x130>
                }
            }
        } 
        // do not use break at this position / optimization
    case menu_home_no_alter: // wanted temp
        if (update) clr_show1(LCD_SEG_BAR24);
    2fac:	11 23       	and	r17, r17
    2fae:	11 f0       	breq	.+4      	; 0x2fb4 <menu_view+0x14a>
    2fb0:	8b e0       	ldi	r24, 0x0B	; 11
    2fb2:	38 df       	rcall	.-400    	; 0x2e24 <clr_show1>
        LCD_PrintTemp(CTL_temp_wanted,LCD_MODE_ON);
    2fb4:	80 91 2d 01 	lds	r24, 0x012D
    2fb8:	63 e0       	ldi	r22, 0x03	; 3
    2fba:	b6 d4       	rcall	.+2412   	; 0x3928 <LCD_PrintTemp>
        //! \note hourbar status calculation is complex we don't want calculate it every view, use chache
        MENU_COMMON_STATUS:
        LCD_SetSeg(LCD_SEG_AUTO, (CTL_test_auto()?LCD_MODE_ON:LCD_MODE_OFF));
    2fbc:	80 91 04 01 	lds	r24, 0x0104
    2fc0:	88 23       	and	r24, r24
    2fc2:	41 f0       	breq	.+16     	; 0x2fd4 <menu_view+0x16a>
    2fc4:	90 91 2e 01 	lds	r25, 0x012E
    2fc8:	80 91 2d 01 	lds	r24, 0x012D
    2fcc:	98 17       	cp	r25, r24
    2fce:	11 f4       	brne	.+4      	; 0x2fd4 <menu_view+0x16a>
    2fd0:	63 e0       	ldi	r22, 0x03	; 3
    2fd2:	01 c0       	rjmp	.+2      	; 0x2fd6 <menu_view+0x16c>
    2fd4:	60 e0       	ldi	r22, 0x00	; 0
    2fd6:	88 e1       	ldi	r24, 0x18	; 24
    2fd8:	5b d3       	rcall	.+1718   	; 0x3690 <LCD_SetSeg>
        LCD_SetSeg(LCD_SEG_MANU, (CTL_mode_auto?LCD_MODE_OFF:LCD_MODE_ON));
    2fda:	80 91 04 01 	lds	r24, 0x0104
    2fde:	88 23       	and	r24, r24
    2fe0:	11 f4       	brne	.+4      	; 0x2fe6 <menu_view+0x17c>
    2fe2:	63 e0       	ldi	r22, 0x03	; 3
    2fe4:	01 c0       	rjmp	.+2      	; 0x2fe8 <menu_view+0x17e>
    2fe6:	60 e0       	ldi	r22, 0x00	; 0
    2fe8:	82 e3       	ldi	r24, 0x32	; 50
    2fea:	52 d3       	rcall	.+1700   	; 0x3690 <LCD_SetSeg>
        LCD_HourBarBitmap(hourbar_buff);
    2fec:	60 91 86 03 	lds	r22, 0x0386
    2ff0:	70 91 87 03 	lds	r23, 0x0387
    2ff4:	80 91 88 03 	lds	r24, 0x0388
    2ff8:	90 91 89 03 	lds	r25, 0x0389
    2ffc:	2e d3       	rcall	.+1628   	; 0x365a <LCD_HourBarBitmap>
    2ffe:	b5 c0       	rjmp	.+362    	; 0x316a <menu_view+0x300>
       break;
    case menu_home2: // real temperature
        if (update) clr_show1(LCD_SEG_COL1);           // decimal point
    3000:	11 23       	and	r17, r17
    3002:	11 f0       	breq	.+4      	; 0x3008 <menu_view+0x19e>
    3004:	8b e3       	ldi	r24, 0x3B	; 59
    3006:	0e df       	rcall	.-484    	; 0x2e24 <clr_show1>
        LCD_PrintTempInt(temp_average,LCD_MODE_ON);
    3008:	80 91 3a 02 	lds	r24, 0x023A
    300c:	90 91 3b 02 	lds	r25, 0x023B
    3010:	63 e0       	ldi	r22, 0x03	; 3
    3012:	18 d4       	rcall	.+2096   	; 0x3844 <LCD_PrintTempInt>
    3014:	aa c0       	rjmp	.+340    	; 0x316a <menu_view+0x300>
        break;
    case menu_home3: // valve pos
        if (update) LCD_AllSegments(LCD_MODE_OFF);
    3016:	11 23       	and	r17, r17
    3018:	11 f0       	breq	.+4      	; 0x301e <menu_view+0x1b4>
    301a:	80 e0       	ldi	r24, 0x00	; 0
    301c:	ed d2       	rcall	.+1498   	; 0x35f8 <LCD_AllSegments>
        // LCD_PrintDec3(MOTOR_GetPosPercent(), 1 ,LCD_MODE_ON);
        // LCD_PrintChar(LCD_CHAR_2lines,0,LCD_MODE_ON);
        {
            uint8_t prc = MOTOR_GetPosPercent();
    301e:	0e 94 4c 01 	call	0x298	; 0x298 <MOTOR_GetPosPercent>
            if (prc<=100) {
    3022:	85 36       	cpi	r24, 0x65	; 101
    3024:	38 f4       	brcc	.+14     	; 0x3034 <menu_view+0x1ca>
                LCD_PrintDec3(MOTOR_GetPosPercent(), 0 ,LCD_MODE_ON);
    3026:	0e 94 4c 01 	call	0x298	; 0x298 <MOTOR_GetPosPercent>
    302a:	90 e0       	ldi	r25, 0x00	; 0
    302c:	60 e0       	ldi	r22, 0x00	; 0
    302e:	43 e0       	ldi	r20, 0x03	; 3
    3030:	e4 d3       	rcall	.+1992   	; 0x37fa <LCD_PrintDec3>
    3032:	9b c0       	rjmp	.+310    	; 0x316a <menu_view+0x300>
            } else {
                LCD_PrintStringID(LCD_STRING_minusCminus,LCD_MODE_ON);
    3034:	8a e0       	ldi	r24, 0x0A	; 10
    3036:	60 c0       	rjmp	.+192    	; 0x30f8 <menu_view+0x28e>
            }
        }
        break;
    case menu_set_timmer_dow:
        clr_show1(LCD_SEG_PROG); // all segments off
    3038:	8a e1       	ldi	r24, 0x1A	; 26
    303a:	f4 de       	rcall	.-536    	; 0x2e24 <clr_show1>
        LCD_PrintDayOfWeek(menu_set_dow, LCD_MODE_BLINK_1);
    303c:	80 91 86 02 	lds	r24, 0x0286
    3040:	61 e0       	ldi	r22, 0x01	; 1
    3042:	53 d4       	rcall	.+2214   	; 0x38ea <LCD_PrintStringID>
    3044:	92 c0       	rjmp	.+292    	; 0x316a <menu_view+0x300>
    LCD_SetSeg(seg1, LCD_MODE_ON);
    LCD_SetSeg(seg2, LCD_MODE_ON);
}

static void clr_show3(uint8_t seg1, uint8_t seg2, uint8_t seg3) {
    LCD_AllSegments(LCD_MODE_OFF);
    3046:	80 e0       	ldi	r24, 0x00	; 0
    3048:	d7 d2       	rcall	.+1454   	; 0x35f8 <LCD_AllSegments>
    LCD_SetSeg(seg1, LCD_MODE_ON);
    304a:	8b e3       	ldi	r24, 0x3B	; 59
    304c:	63 e0       	ldi	r22, 0x03	; 3
    304e:	20 d3       	rcall	.+1600   	; 0x3690 <LCD_SetSeg>
    LCD_SetSeg(seg2, LCD_MODE_ON);
    3050:	83 e2       	ldi	r24, 0x23	; 35
    3052:	63 e0       	ldi	r22, 0x03	; 3
    3054:	1d d3       	rcall	.+1594   	; 0x3690 <LCD_SetSeg>
    LCD_SetSeg(seg3, LCD_MODE_ON);
    3056:	8a e1       	ldi	r24, 0x1A	; 26
    3058:	63 e0       	ldi	r22, 0x03	; 3
    305a:	1a d3       	rcall	.+1588   	; 0x3690 <LCD_SetSeg>
        break;
    case menu_set_timmer:
        //! \todo calculate "hourbar" status, actual position in mode LCD_MODE_BLINK_1
        
        clr_show3(LCD_SEG_COL1,LCD_SEG_COL2,LCD_SEG_PROG);
        timmers_patch_offset=timers_get_raw_index(menu_set_dow, menu_set_slot);
    305c:	80 91 86 02 	lds	r24, 0x0286
    3060:	98 2f       	mov	r25, r24
    3062:	99 0f       	add	r25, r25
    3064:	99 0f       	add	r25, r25
    3066:	99 0f       	add	r25, r25
    3068:	20 91 8a 02 	lds	r18, 0x028A
    306c:	92 0f       	add	r25, r18
    306e:	90 93 14 01 	sts	0x0114, r25
        timmers_patch_data = menu_set_time +  ((uint16_t)menu_set_mode<<12);
    3072:	90 91 89 02 	lds	r25, 0x0289
    3076:	39 2f       	mov	r19, r25
    3078:	32 95       	swap	r19
    307a:	30 7f       	andi	r19, 0xF0	; 240
    307c:	20 e0       	ldi	r18, 0x00	; 0
    307e:	40 91 87 02 	lds	r20, 0x0287
    3082:	50 91 88 02 	lds	r21, 0x0288
    3086:	24 0f       	add	r18, r20
    3088:	35 1f       	adc	r19, r21
    308a:	30 93 55 03 	sts	0x0355, r19
    308e:	20 93 54 03 	sts	0x0354, r18
        LCD_HourBarBitmap(RTC_DowTimerGetHourBar(menu_set_dow));
    3092:	65 d8       	rcall	.-3894   	; 0x215e <RTC_DowTimerGetHourBar>
    3094:	e2 d2       	rcall	.+1476   	; 0x365a <LCD_HourBarBitmap>
        timmers_patch_offset=0xff;
    3096:	8f ef       	ldi	r24, 0xFF	; 255
    3098:	80 93 14 01 	sts	0x0114, r24
        LCD_SetHourBarSeg(menu_set_time/60, LCD_MODE_BLINK_1);
    309c:	80 91 87 02 	lds	r24, 0x0287
    30a0:	90 91 88 02 	lds	r25, 0x0288
    30a4:	6c e3       	ldi	r22, 0x3C	; 60
    30a6:	70 e0       	ldi	r23, 0x00	; 0
    30a8:	f1 d4       	rcall	.+2530   	; 0x3a8c <__udivmodhi4>
    30aa:	86 2f       	mov	r24, r22
    30ac:	61 e0       	ldi	r22, 0x01	; 1
    30ae:	38 d3       	rcall	.+1648   	; 0x3720 <LCD_SetHourBarSeg>
        if (menu_set_time < 24*60) {
    30b0:	80 91 87 02 	lds	r24, 0x0287
    30b4:	90 91 88 02 	lds	r25, 0x0288
    30b8:	25 e0       	ldi	r18, 0x05	; 5
    30ba:	80 3a       	cpi	r24, 0xA0	; 160
    30bc:	92 07       	cpc	r25, r18
    30be:	90 f4       	brcc	.+36     	; 0x30e4 <menu_view+0x27a>
            LCD_PrintDec(menu_set_time/60, 2, LCD_MODE_BLINK_1);
    30c0:	6c e3       	ldi	r22, 0x3C	; 60
    30c2:	70 e0       	ldi	r23, 0x00	; 0
    30c4:	e3 d4       	rcall	.+2502   	; 0x3a8c <__udivmodhi4>
    30c6:	86 2f       	mov	r24, r22
    30c8:	62 e0       	ldi	r22, 0x02	; 2
    30ca:	41 e0       	ldi	r20, 0x01	; 1
    30cc:	5e d3       	rcall	.+1724   	; 0x378a <LCD_PrintDec>
            LCD_PrintDec(menu_set_time%60, 0, LCD_MODE_BLINK_1);        
    30ce:	80 91 87 02 	lds	r24, 0x0287
    30d2:	90 91 88 02 	lds	r25, 0x0288
    30d6:	6c e3       	ldi	r22, 0x3C	; 60
    30d8:	70 e0       	ldi	r23, 0x00	; 0
    30da:	d8 d4       	rcall	.+2480   	; 0x3a8c <__udivmodhi4>
    30dc:	60 e0       	ldi	r22, 0x00	; 0
    30de:	41 e0       	ldi	r20, 0x01	; 1
    30e0:	54 d3       	rcall	.+1704   	; 0x378a <LCD_PrintDec>
    30e2:	03 c0       	rjmp	.+6      	; 0x30ea <menu_view+0x280>
        } else {
            LCD_PrintStringID(LCD_STRING_4xminus,LCD_MODE_BLINK_1);
    30e4:	89 e0       	ldi	r24, 0x09	; 9
    30e6:	61 e0       	ldi	r22, 0x01	; 1
    30e8:	00 d4       	rcall	.+2048   	; 0x38ea <LCD_PrintStringID>
        }
        show_selected_temperature_type(menu_set_mode,LCD_MODE_BLINK_1);
    30ea:	80 91 89 02 	lds	r24, 0x0289
    30ee:	61 e0       	ldi	r22, 0x01	; 1
    30f0:	3b c0       	rjmp	.+118    	; 0x3168 <menu_view+0x2fe>
        break;                                                             
    case menu_lock:        // "bloc" message
        LCD_AllSegments(LCD_MODE_OFF); // all segments off
    30f2:	80 e0       	ldi	r24, 0x00	; 0
    30f4:	81 d2       	rcall	.+1282   	; 0x35f8 <LCD_AllSegments>
        LCD_PrintStringID(LCD_STRING_bloc,LCD_MODE_ON);
    30f6:	88 e0       	ldi	r24, 0x08	; 8
    30f8:	63 e0       	ldi	r22, 0x03	; 3
    30fa:	a3 cf       	rjmp	.-186    	; 0x3042 <menu_view+0x1d8>
        break;
    case menu_service1: 
    case menu_service2:
        // service menu; left side index, right value
        LCD_AllSegments(LCD_MODE_ON);
    30fc:	83 e0       	ldi	r24, 0x03	; 3
    30fe:	7c d2       	rcall	.+1272   	; 0x35f8 <LCD_AllSegments>
        LCD_PrintHex(service_idx, 2, ((menu_state == menu_service1) ? LCD_MODE_BLINK_1 : LCD_MODE_ON));
    3100:	90 91 16 01 	lds	r25, 0x0116
    3104:	80 91 8a 03 	lds	r24, 0x038A
    3108:	8c 30       	cpi	r24, 0x0C	; 12
    310a:	11 f0       	breq	.+4      	; 0x3110 <menu_view+0x2a6>
    310c:	43 e0       	ldi	r20, 0x03	; 3
    310e:	01 c0       	rjmp	.+2      	; 0x3112 <menu_view+0x2a8>
    3110:	41 e0       	ldi	r20, 0x01	; 1
    3112:	89 2f       	mov	r24, r25
    3114:	62 e0       	ldi	r22, 0x02	; 2
    3116:	c5 d3       	rcall	.+1930   	; 0x38a2 <LCD_PrintHex>
        LCD_PrintHex(config_raw[service_idx], 0, ((menu_state == menu_service2) ? LCD_MODE_BLINK_1 : LCD_MODE_ON));
    3118:	e0 91 16 01 	lds	r30, 0x0116
    311c:	f0 e0       	ldi	r31, 0x00	; 0
    311e:	ea 5a       	subi	r30, 0xAA	; 170
    3120:	fc 4f       	sbci	r31, 0xFC	; 252
    3122:	e0 81       	ld	r30, Z
    3124:	80 91 8a 03 	lds	r24, 0x038A
    3128:	8d 30       	cpi	r24, 0x0D	; 13
    312a:	11 f0       	breq	.+4      	; 0x3130 <menu_view+0x2c6>
    312c:	43 e0       	ldi	r20, 0x03	; 3
    312e:	01 c0       	rjmp	.+2      	; 0x3132 <menu_view+0x2c8>
    3130:	41 e0       	ldi	r20, 0x01	; 1
    3132:	8e 2f       	mov	r24, r30
    3134:	60 e0       	ldi	r22, 0x00	; 0
    3136:	b5 d3       	rcall	.+1898   	; 0x38a2 <LCD_PrintHex>
    3138:	18 c0       	rjmp	.+48     	; 0x316a <menu_view+0x300>
       break;
    case menu_service_watch:
        LCD_AllSegments(LCD_MODE_ON);
    313a:	83 e0       	ldi	r24, 0x03	; 3
    313c:	5d d2       	rcall	.+1210   	; 0x35f8 <LCD_AllSegments>
        LCD_PrintHexW(watch(service_watch_n),LCD_MODE_ON);
    313e:	80 91 84 02 	lds	r24, 0x0284
    3142:	0e 94 8d 07 	call	0xf1a	; 0xf1a <watch>
    3146:	63 e0       	ldi	r22, 0x03	; 3
    3148:	c1 d3       	rcall	.+1922   	; 0x38cc <LCD_PrintHexW>
        LCD_SetHourBarSeg(service_watch_n, LCD_MODE_BLINK_1);
    314a:	80 91 84 02 	lds	r24, 0x0284
    314e:	61 e0       	ldi	r22, 0x01	; 1
    3150:	e7 d2       	rcall	.+1486   	; 0x3720 <LCD_SetHourBarSeg>
    3152:	0b c0       	rjmp	.+22     	; 0x316a <menu_view+0x300>
        break;
    case menu_preset_temp0:
    case menu_preset_temp1:
    case menu_preset_temp2:
    case menu_preset_temp3:
        clr_show1(LCD_SEG_COL1);           // decimal point
    3154:	8b e3       	ldi	r24, 0x3B	; 59
    3156:	66 de       	rcall	.-820    	; 0x2e24 <clr_show1>
        LCD_PrintTemp(menu_set_temp,LCD_MODE_BLINK_1);
    3158:	80 91 86 02 	lds	r24, 0x0286
    315c:	61 e0       	ldi	r22, 0x01	; 1
    315e:	e4 d3       	rcall	.+1992   	; 0x3928 <LCD_PrintTemp>
        show_selected_temperature_type(menu_state-menu_preset_temp0,LCD_MODE_ON);
    3160:	80 91 8a 03 	lds	r24, 0x038A
    3164:	82 50       	subi	r24, 0x02	; 2
    3166:	63 e0       	ldi	r22, 0x03	; 3
    3168:	66 de       	rcall	.-820    	; 0x2e36 <show_selected_temperature_type>
    default:
        break;                   
    }                                          
}
    316a:	1f 91       	pop	r17
    316c:	08 95       	ret

0000316e <menu_controller>:
 *******************************************************************************
 * \brief menu Controller
 * 
 * \returns true for controler restart  
 ******************************************************************************/
bool menu_controller(bool new_state) {
    316e:	ef 92       	push	r14
    3170:	ff 92       	push	r15
    3172:	1f 93       	push	r17
    3174:	cf 93       	push	r28
    3176:	df 93       	push	r29
 * \returns true for controler restart
 ******************************************************************************/

static int8_t wheel_proccess(void) {
    int8_t ret=0;
    if (kb_events & KB_EVENT_WHEEL_PLUS) {
    3178:	40 91 30 02 	lds	r20, 0x0230
    317c:	50 91 31 02 	lds	r21, 0x0231
    3180:	40 ff       	sbrs	r20, 0
    3182:	02 c0       	rjmp	.+4      	; 0x3188 <menu_controller+0x1a>
    3184:	11 e0       	ldi	r17, 0x01	; 1
    3186:	05 c0       	rjmp	.+10     	; 0x3192 <menu_controller+0x24>
        ret= 1;
    } else if (kb_events & KB_EVENT_WHEEL_MINUS) {
    3188:	41 fd       	sbrc	r20, 1
    318a:	02 c0       	rjmp	.+4      	; 0x3190 <menu_controller+0x22>
    318c:	10 e0       	ldi	r17, 0x00	; 0
    318e:	01 c0       	rjmp	.+2      	; 0x3192 <menu_controller+0x24>
    3190:	1f ef       	ldi	r17, 0xFF	; 255
 * \returns true for controler restart  
 ******************************************************************************/
bool menu_controller(bool new_state) {
	int8_t wheel = wheel_proccess(); //signed number
	bool ret = false;
    switch (menu_state) {
    3192:	90 91 8a 03 	lds	r25, 0x038A
    3196:	e9 2f       	mov	r30, r25
    3198:	f0 e0       	ldi	r31, 0x00	; 0
    319a:	e7 31       	cpi	r30, 0x17	; 23
    319c:	f1 05       	cpc	r31, r1
    319e:	08 f0       	brcs	.+2      	; 0x31a2 <menu_controller+0x34>
    31a0:	73 c1       	rjmp	.+742    	; 0x3488 <menu_controller+0x31a>
    31a2:	eb 58       	subi	r30, 0x8B	; 139
    31a4:	ff 4f       	sbci	r31, 0xFF	; 255
    31a6:	0d c5       	rjmp	.+2586   	; 0x3bc2 <__tablejump2__>
    case menu_startup:
        if (new_state) {
    31a8:	88 23       	and	r24, r24
    31aa:	19 f0       	breq	.+6      	; 0x31b2 <menu_controller+0x44>
            menu_auto_update_timeout=2;
    31ac:	82 e0       	ldi	r24, 0x02	; 2
    31ae:	80 93 15 01 	sts	0x0115, r24
        }
        if (menu_auto_update_timeout==0) {
    31b2:	80 91 15 01 	lds	r24, 0x0115
    31b6:	88 23       	and	r24, r24
    31b8:	09 f0       	breq	.+2      	; 0x31bc <menu_controller+0x4e>
    31ba:	d2 c1       	rjmp	.+932    	; 0x3560 <menu_controller+0x3f2>
            menu_state = menu_version;
    31bc:	81 e0       	ldi	r24, 0x01	; 1
    31be:	80 93 8a 03 	sts	0x038A, r24
    31c2:	d1 c1       	rjmp	.+930    	; 0x3566 <menu_controller+0x3f8>
            ret=true;
        }
        break;
    case menu_version:
        if (new_state) {
    31c4:	88 23       	and	r24, r24
    31c6:	19 f0       	breq	.+6      	; 0x31ce <menu_controller+0x60>
            menu_auto_update_timeout=2;
    31c8:	82 e0       	ldi	r24, 0x02	; 2
    31ca:	80 93 15 01 	sts	0x0115, r24
        }
        if (menu_auto_update_timeout==0) {
    31ce:	80 91 15 01 	lds	r24, 0x0115
    31d2:	88 23       	and	r24, r24
    31d4:	09 f0       	breq	.+2      	; 0x31d8 <menu_controller+0x6a>
    31d6:	c4 c1       	rjmp	.+904    	; 0x3560 <menu_controller+0x3f2>
            #if DEBUG_SKIP_DATETIME_SETTING_AFTER_RESET
                menu_state = menu_home;
            #else
                menu_state = menu_set_year;
    31d8:	8f e0       	ldi	r24, 0x0F	; 15
    31da:	ae c1       	rjmp	.+860    	; 0x3538 <menu_controller+0x3ca>
            #endif
            ret=true;
        }
        break;
    case menu_set_year:
        if (wheel != 0) RTC_SetYear(RTC_GetYearYY()+wheel);
    31dc:	11 23       	and	r17, r17
    31de:	21 f0       	breq	.+8      	; 0x31e8 <menu_controller+0x7a>
    31e0:	80 91 0a 01 	lds	r24, 0x010A
    31e4:	81 0f       	add	r24, r17
    31e6:	e4 d8       	rcall	.-3640   	; 0x23b0 <RTC_SetYear>
        if ( kb_events & KB_EVENT_PROG) {
    31e8:	80 91 30 02 	lds	r24, 0x0230
    31ec:	82 ff       	sbrs	r24, 2
    31ee:	b8 c1       	rjmp	.+880    	; 0x3560 <menu_controller+0x3f2>
            menu_state = menu_set_month;
    31f0:	80 e1       	ldi	r24, 0x10	; 16
    31f2:	42 c1       	rjmp	.+644    	; 0x3478 <menu_controller+0x30a>
            CTL_update_temp_auto();
            ret=true;
        }
        break;
    case menu_set_month:
        if (wheel != 0) RTC_SetMonth(RTC_GetMonth()+wheel);
    31f4:	11 23       	and	r17, r17
    31f6:	21 f0       	breq	.+8      	; 0x3200 <menu_controller+0x92>
    31f8:	80 91 0b 01 	lds	r24, 0x010B
    31fc:	81 0f       	add	r24, r17
    31fe:	db d8       	rcall	.-3658   	; 0x23b6 <RTC_SetMonth>
        if ( kb_events & KB_EVENT_PROG ) {
    3200:	80 91 30 02 	lds	r24, 0x0230
    3204:	82 ff       	sbrs	r24, 2
    3206:	ac c1       	rjmp	.+856    	; 0x3560 <menu_controller+0x3f2>
            menu_state = menu_set_day;
    3208:	81 e1       	ldi	r24, 0x11	; 17
    320a:	36 c1       	rjmp	.+620    	; 0x3478 <menu_controller+0x30a>
            CTL_update_temp_auto();
            ret=true;
        }
        break;
    case menu_set_day:
        if (wheel != 0) RTC_SetDay(RTC_GetDay()+wheel);
    320c:	11 23       	and	r17, r17
    320e:	21 f0       	breq	.+8      	; 0x3218 <menu_controller+0xaa>
    3210:	80 91 0c 01 	lds	r24, 0x010C
    3214:	81 0f       	add	r24, r17
    3216:	d7 d8       	rcall	.-3666   	; 0x23c6 <RTC_SetDay>
        if ( kb_events & KB_EVENT_PROG ) {
    3218:	80 91 30 02 	lds	r24, 0x0230
    321c:	82 ff       	sbrs	r24, 2
    321e:	a0 c1       	rjmp	.+832    	; 0x3560 <menu_controller+0x3f2>
            menu_state = menu_set_hour;
    3220:	82 e1       	ldi	r24, 0x12	; 18
    3222:	2a c1       	rjmp	.+596    	; 0x3478 <menu_controller+0x30a>
            CTL_update_temp_auto();
            ret=true;
        }
        break;
    case menu_set_hour:
        if (wheel != 0) RTC_SetHour(RTC_GetHour()+wheel);
    3224:	11 23       	and	r17, r17
    3226:	29 f0       	breq	.+10     	; 0x3232 <menu_controller+0xc4>
    3228:	80 91 0d 01 	lds	r24, 0x010D
    322c:	81 0f       	add	r24, r17
    322e:	0e 94 64 0f 	call	0x1ec8	; 0x1ec8 <RTC_SetHour>
        if ( kb_events & KB_EVENT_PROG ) {
    3232:	80 91 30 02 	lds	r24, 0x0230
    3236:	82 ff       	sbrs	r24, 2
    3238:	93 c1       	rjmp	.+806    	; 0x3560 <menu_controller+0x3f2>
            menu_state = menu_set_minute;
    323a:	83 e1       	ldi	r24, 0x13	; 19
    323c:	1d c1       	rjmp	.+570    	; 0x3478 <menu_controller+0x30a>
            CTL_update_temp_auto();
            ret=true;
        }
        break;
    case menu_set_minute:
        if (wheel != 0) {
    323e:	11 23       	and	r17, r17
    3240:	41 f0       	breq	.+16     	; 0x3252 <menu_controller+0xe4>
            RTC_SetMinute(RTC_GetMinute()+wheel);
    3242:	80 91 0e 01 	lds	r24, 0x010E
    3246:	81 0f       	add	r24, r17
    3248:	0e 94 6b 0f 	call	0x1ed6	; 0x1ed6 <RTC_SetMinute>
            RTC_SetSecond(0);
    324c:	80 e0       	ldi	r24, 0x00	; 0
    324e:	0e 94 72 0f 	call	0x1ee4	; 0x1ee4 <RTC_SetSecond>
        }
        if ( kb_events & KB_EVENT_PROG ) {
    3252:	80 91 30 02 	lds	r24, 0x0230
    3256:	82 ff       	sbrs	r24, 2
    3258:	83 c1       	rjmp	.+774    	; 0x3560 <menu_controller+0x3f2>
            menu_state = menu_home;
    325a:	87 e0       	ldi	r24, 0x07	; 7
    325c:	0d c1       	rjmp	.+538    	; 0x3478 <menu_controller+0x30a>
    case menu_home_no_alter: // same as home screen, but without alternate contend
    case menu_home:         // home screen
    case menu_home2:        // alternate version, real temperature
    case menu_home3:        // alternate version, valve pos
    case menu_home4:        // alternate version, time    
        if ( kb_events & KB_EVENT_C ) {
    325e:	43 ff       	sbrs	r20, 3
    3260:	08 c0       	rjmp	.+16     	; 0x3272 <menu_controller+0x104>
            menu_state++;       // go to next alternate home screen
    3262:	89 2f       	mov	r24, r25
    3264:	8f 5f       	subi	r24, 0xFF	; 255
    3266:	80 93 8a 03 	sts	0x038A, r24
            if (menu_state > menu_home4) menu_state=menu_home;
    326a:	8b 30       	cpi	r24, 0x0B	; 11
    326c:	09 f0       	breq	.+2      	; 0x3270 <menu_controller+0x102>
    326e:	7a c1       	rjmp	.+756    	; 0x3564 <menu_controller+0x3f6>
    3270:	5e c1       	rjmp	.+700    	; 0x352e <menu_controller+0x3c0>
            ret=true; 
        } else {
            if (locked) {
    3272:	80 91 85 02 	lds	r24, 0x0285
    3276:	88 23       	and	r24, r24
    3278:	51 f0       	breq	.+20     	; 0x328e <menu_controller+0x120>
                if ( kb_events & (
    327a:	47 7f       	andi	r20, 0xF7	; 247
    327c:	57 70       	andi	r21, 0x07	; 7
    327e:	45 2b       	or	r20, r21
    3280:	09 f4       	brne	.+2      	; 0x3284 <menu_controller+0x116>
    3282:	6e c1       	rjmp	.+732    	; 0x3560 <menu_controller+0x3f2>
                        KB_EVENT_WHEEL_PLUS  | KB_EVENT_WHEEL_MINUS | KB_EVENT_PROG
                        | KB_EVENT_AUTO | KB_EVENT_PROG_REWOKE | KB_EVENT_C_REWOKE | KB_EVENT_AUTO_REWOKE
                        | KB_EVENT_PROG_LONG | KB_EVENT_C_LONG | KB_EVENT_AUTO_LONG )) {
                    menu_auto_update_timeout=LONG_PRESS_THLD+1;
    3284:	85 e0       	ldi	r24, 0x05	; 5
    3286:	80 93 15 01 	sts	0x0115, r24
                    menu_state=menu_lock;
    328a:	8b e0       	ldi	r24, 0x0B	; 11
    328c:	55 c1       	rjmp	.+682    	; 0x3538 <menu_controller+0x3ca>
                    ret=true;
                    }
            } else { // not locked
    			if ((wheel != 0) &&   ((menu_state == menu_home) 
    328e:	11 23       	and	r17, r17
    3290:	59 f0       	breq	.+22     	; 0x32a8 <menu_controller+0x13a>
    3292:	96 50       	subi	r25, 0x06	; 6
    3294:	92 30       	cpi	r25, 0x02	; 2
    3296:	40 f4       	brcc	.+16     	; 0x32a8 <menu_controller+0x13a>
    							    || (menu_state == menu_home_no_alter))) {
    				CTL_temp_change_inc(wheel);
    3298:	81 2f       	mov	r24, r17
    329a:	0e 94 d3 04 	call	0x9a6	; 0x9a6 <CTL_temp_change_inc>
    				menu_state = menu_home_no_alter;
    329e:	86 e0       	ldi	r24, 0x06	; 6
    32a0:	80 93 8a 03 	sts	0x038A, r24
    32a4:	81 e0       	ldi	r24, 0x01	; 1
    32a6:	01 c0       	rjmp	.+2      	; 0x32aa <menu_controller+0x13c>
    32a8:	80 e0       	ldi	r24, 0x00	; 0
                    ret=true; 
    			} 			 
                if ( kb_events & KB_EVENT_AUTO ) {
    32aa:	90 91 30 02 	lds	r25, 0x0230
    32ae:	94 ff       	sbrs	r25, 4
    32b0:	02 c0       	rjmp	.+4      	; 0x32b6 <menu_controller+0x148>
                    CTL_change_mode(CTL_CHANGE_MODE); // change mode
    32b2:	8f ef       	ldi	r24, 0xFF	; 255
    32b4:	03 c0       	rjmp	.+6      	; 0x32bc <menu_controller+0x14e>
                    menu_state=menu_home_no_alter;
                    ret=true; 
                } else if ( kb_events & KB_EVENT_AUTO_REWOKE ) {
    32b6:	97 ff       	sbrs	r25, 7
    32b8:	56 c1       	rjmp	.+684    	; 0x3566 <menu_controller+0x3f8>
                    CTL_change_mode(CTL_CHANGE_MODE_REWOKE); // change mode
    32ba:	8e ef       	ldi	r24, 0xFE	; 254
    32bc:	0e 94 e7 04 	call	0x9ce	; 0x9ce <CTL_change_mode>
                    menu_state=menu_home_no_alter;
    32c0:	86 e0       	ldi	r24, 0x06	; 6
    32c2:	3a c1       	rjmp	.+628    	; 0x3538 <menu_controller+0x3ca>
                // TODO ....  
            }
        } 
        break;
    case menu_set_timmer_dow_start:
        if (new_state) menu_set_dow=((config.timer_mode==1)?RTC_GetDayOfWeek():0);
    32c4:	88 23       	and	r24, r24
    32c6:	51 f0       	breq	.+20     	; 0x32dc <menu_controller+0x16e>
    32c8:	80 91 76 03 	lds	r24, 0x0376
    32cc:	81 30       	cpi	r24, 0x01	; 1
    32ce:	11 f0       	breq	.+4      	; 0x32d4 <menu_controller+0x166>
    32d0:	80 e0       	ldi	r24, 0x00	; 0
    32d2:	02 c0       	rjmp	.+4      	; 0x32d8 <menu_controller+0x16a>
    32d4:	80 91 10 01 	lds	r24, 0x0110
    32d8:	80 93 86 02 	sts	0x0286, r24
        menu_state = menu_set_timmer_dow;
    32dc:	85 e1       	ldi	r24, 0x15	; 21
    32de:	80 93 8a 03 	sts	0x038A, r24
        // do not use break here
    case menu_set_timmer_dow:
		if (wheel != 0) menu_set_dow=(menu_set_dow+wheel+8)%8;
    32e2:	11 23       	and	r17, r17
    32e4:	61 f0       	breq	.+24     	; 0x32fe <menu_controller+0x190>
    32e6:	20 91 86 02 	lds	r18, 0x0286
    32ea:	81 2f       	mov	r24, r17
    32ec:	99 27       	eor	r25, r25
    32ee:	87 fd       	sbrc	r24, 7
    32f0:	90 95       	com	r25
    32f2:	82 0f       	add	r24, r18
    32f4:	91 1d       	adc	r25, r1
    32f6:	87 70       	andi	r24, 0x07	; 7
    32f8:	90 70       	andi	r25, 0x00	; 0
    32fa:	80 93 86 02 	sts	0x0286, r24
        if ( kb_events & KB_EVENT_PROG ) {
    32fe:	42 ff       	sbrs	r20, 2
    3300:	c0 c0       	rjmp	.+384    	; 0x3482 <menu_controller+0x314>
            menu_state=menu_set_timmer;
    3302:	86 e1       	ldi	r24, 0x16	; 22
    3304:	80 93 8a 03 	sts	0x038A, r24
            menu_set_slot=0;
    3308:	10 92 8a 02 	sts	0x028A, r1
            config.timer_mode = (menu_set_dow>0);
    330c:	10 92 76 03 	sts	0x0376, r1
    3310:	80 91 86 02 	lds	r24, 0x0286
    3314:	88 23       	and	r24, r24
    3316:	19 f0       	breq	.+6      	; 0x331e <menu_controller+0x1b0>
    3318:	81 e0       	ldi	r24, 0x01	; 1
    331a:	80 93 76 03 	sts	0x0376, r24
            eeprom_config_save((uint16_t)(&config.timer_mode)-(uint16_t)(&config)); // save value to eeprom
    331e:	80 e2       	ldi	r24, 0x20	; 32
    3320:	eb dc       	rcall	.-1578   	; 0x2cf8 <eeprom_config_save>
    3322:	68 c0       	rjmp	.+208    	; 0x33f4 <menu_controller+0x286>
            menu_state=menu_home;
            ret=true; 
        }
        break;        
    case menu_set_timmer:
        if (new_state) {
    3324:	88 23       	and	r24, r24
    3326:	a1 f0       	breq	.+40     	; 0x3350 <menu_controller+0x1e2>
            menu_set_time= RTC_DowTimerGet(menu_set_dow, menu_set_slot, &menu_set_mode);
    3328:	80 91 86 02 	lds	r24, 0x0286
    332c:	60 91 8a 02 	lds	r22, 0x028A
    3330:	49 e8       	ldi	r20, 0x89	; 137
    3332:	52 e0       	ldi	r21, 0x02	; 2
    3334:	7e d8       	rcall	.-3844   	; 0x2432 <RTC_DowTimerGet>
    3336:	90 93 88 02 	sts	0x0288, r25
    333a:	80 93 87 02 	sts	0x0287, r24
			if (menu_set_time>24*60) menu_set_time=24*60;
    333e:	81 5a       	subi	r24, 0xA1	; 161
    3340:	95 40       	sbci	r25, 0x05	; 5
    3342:	30 f0       	brcs	.+12     	; 0x3350 <menu_controller+0x1e2>
    3344:	80 ea       	ldi	r24, 0xA0	; 160
    3346:	95 e0       	ldi	r25, 0x05	; 5
    3348:	90 93 88 02 	sts	0x0288, r25
    334c:	80 93 87 02 	sts	0x0287, r24
        }
        if (wheel != 0) {
    3350:	11 23       	and	r17, r17
    3352:	09 f1       	breq	.+66     	; 0x3396 <menu_controller+0x228>
            menu_set_time=((menu_set_time/10+(24*6+1)+wheel)%(24*6+1))*10;
    3354:	80 91 87 02 	lds	r24, 0x0287
    3358:	90 91 88 02 	lds	r25, 0x0288
    335c:	6a e0       	ldi	r22, 0x0A	; 10
    335e:	70 e0       	ldi	r23, 0x00	; 0
    3360:	95 d3       	rcall	.+1834   	; 0x3a8c <__udivmodhi4>
    3362:	cb 01       	movw	r24, r22
    3364:	8f 56       	subi	r24, 0x6F	; 111
    3366:	9f 4f       	sbci	r25, 0xFF	; 255
    3368:	21 2f       	mov	r18, r17
    336a:	33 27       	eor	r19, r19
    336c:	27 fd       	sbrc	r18, 7
    336e:	30 95       	com	r19
    3370:	82 0f       	add	r24, r18
    3372:	93 1f       	adc	r25, r19
    3374:	61 e9       	ldi	r22, 0x91	; 145
    3376:	70 e0       	ldi	r23, 0x00	; 0
    3378:	89 d3       	rcall	.+1810   	; 0x3a8c <__udivmodhi4>
    337a:	9c 01       	movw	r18, r24
    337c:	53 e0       	ldi	r21, 0x03	; 3
    337e:	88 0f       	add	r24, r24
    3380:	99 1f       	adc	r25, r25
    3382:	5a 95       	dec	r21
    3384:	e1 f7       	brne	.-8      	; 0x337e <menu_controller+0x210>
    3386:	22 0f       	add	r18, r18
    3388:	33 1f       	adc	r19, r19
    338a:	82 0f       	add	r24, r18
    338c:	93 1f       	adc	r25, r19
    338e:	90 93 88 02 	sts	0x0288, r25
    3392:	80 93 87 02 	sts	0x0287, r24
        }
        if ( kb_events & KB_EVENT_C ) {
    3396:	80 91 30 02 	lds	r24, 0x0230
    339a:	83 ff       	sbrs	r24, 3
    339c:	09 c0       	rjmp	.+18     	; 0x33b0 <menu_controller+0x242>
            menu_set_mode=(menu_set_mode+5)%4;
    339e:	80 91 89 02 	lds	r24, 0x0289
    33a2:	90 e0       	ldi	r25, 0x00	; 0
    33a4:	05 96       	adiw	r24, 0x05	; 5
    33a6:	83 70       	andi	r24, 0x03	; 3
    33a8:	90 70       	andi	r25, 0x00	; 0
    33aa:	80 93 89 02 	sts	0x0289, r24
    33ae:	d8 c0       	rjmp	.+432    	; 0x3560 <menu_controller+0x3f2>
        } else if ( kb_events & KB_EVENT_PROG ) {
    33b0:	82 ff       	sbrs	r24, 2
    33b2:	33 c0       	rjmp	.+102    	; 0x341a <menu_controller+0x2ac>
            RTC_DowTimerSet(menu_set_dow, menu_set_slot, menu_set_time, menu_set_mode);
    33b4:	40 91 87 02 	lds	r20, 0x0287
    33b8:	50 91 88 02 	lds	r21, 0x0288
    33bc:	80 91 86 02 	lds	r24, 0x0286
    33c0:	60 91 8a 02 	lds	r22, 0x028A
    33c4:	20 91 89 02 	lds	r18, 0x0289
    33c8:	47 d8       	rcall	.-3954   	; 0x2458 <RTC_DowTimerSet>
            if (++menu_set_slot>=RTC_TIMERS_PER_DOW) {
    33ca:	80 91 8a 02 	lds	r24, 0x028A
    33ce:	8f 5f       	subi	r24, 0xFF	; 255
    33d0:	80 93 8a 02 	sts	0x028A, r24
    33d4:	88 30       	cpi	r24, 0x08	; 8
    33d6:	60 f0       	brcs	.+24     	; 0x33f0 <menu_controller+0x282>
                if (menu_set_dow!=0) menu_set_dow=menu_set_dow%7+1; 
    33d8:	80 91 86 02 	lds	r24, 0x0286
    33dc:	88 23       	and	r24, r24
    33de:	29 f0       	breq	.+10     	; 0x33ea <menu_controller+0x27c>
    33e0:	67 e0       	ldi	r22, 0x07	; 7
    33e2:	3b d3       	rcall	.+1654   	; 0x3a5a <__udivmodqi4>
    33e4:	9f 5f       	subi	r25, 0xFF	; 255
    33e6:	90 93 86 02 	sts	0x0286, r25
                menu_state=menu_set_timmer_dow;
    33ea:	85 e1       	ldi	r24, 0x15	; 21
    33ec:	80 93 8a 03 	sts	0x038A, r24
            }
            CTL_update_temp_auto();
    33f0:	10 92 2e 01 	sts	0x012E, r1
        	menu_update_hourbar((config.timer_mode==1)?RTC_GetDayOfWeek():0);
    33f4:	80 91 76 03 	lds	r24, 0x0376
    33f8:	81 30       	cpi	r24, 0x01	; 1
    33fa:	11 f0       	breq	.+4      	; 0x3400 <menu_controller+0x292>
    33fc:	80 e0       	ldi	r24, 0x00	; 0
    33fe:	02 c0       	rjmp	.+4      	; 0x3404 <menu_controller+0x296>
    3400:	80 91 10 01 	lds	r24, 0x0110
    3404:	0e 94 af 10 	call	0x215e	; 0x215e <RTC_DowTimerGetHourBar>
    3408:	60 93 86 03 	sts	0x0386, r22
    340c:	70 93 87 03 	sts	0x0387, r23
    3410:	80 93 88 03 	sts	0x0388, r24
    3414:	90 93 89 03 	sts	0x0389, r25
    3418:	a5 c0       	rjmp	.+330    	; 0x3564 <menu_controller+0x3f6>
            ret=true; 
        } else if ( kb_events & KB_EVENT_AUTO ) { // exit without save
    341a:	84 ff       	sbrs	r24, 4
    341c:	a1 c0       	rjmp	.+322    	; 0x3560 <menu_controller+0x3f2>
    341e:	87 c0       	rjmp	.+270    	; 0x352e <menu_controller+0x3c0>
        break;
    case menu_preset_temp0:
    case menu_preset_temp1:
    case menu_preset_temp2:
    case menu_preset_temp3:
        if (new_state) menu_set_temp=temperature_table[menu_state-menu_preset_temp0];
    3420:	88 23       	and	r24, r24
    3422:	39 f0       	breq	.+14     	; 0x3432 <menu_controller+0x2c4>
    3424:	e9 2f       	mov	r30, r25
    3426:	f0 e0       	ldi	r31, 0x00	; 0
    3428:	eb 5a       	subi	r30, 0xAB	; 171
    342a:	fc 4f       	sbci	r31, 0xFC	; 252
    342c:	80 81       	ld	r24, Z
    342e:	80 93 86 02 	sts	0x0286, r24
        if (wheel != 0) {
    3432:	11 23       	and	r17, r17
    3434:	89 f0       	breq	.+34     	; 0x3458 <menu_controller+0x2ea>
            menu_set_temp+=wheel;
    3436:	80 91 86 02 	lds	r24, 0x0286
    343a:	81 0f       	add	r24, r17
    343c:	80 93 86 02 	sts	0x0286, r24
            if (menu_set_temp > TEMP_MAX+1) menu_set_temp = TEMP_MAX+1;
    3440:	8e 33       	cpi	r24, 0x3E	; 62
    3442:	18 f0       	brcs	.+6      	; 0x344a <menu_controller+0x2dc>
    3444:	8d e3       	ldi	r24, 0x3D	; 61
    3446:	80 93 86 02 	sts	0x0286, r24
            if (menu_set_temp < TEMP_MIN-1) menu_set_temp = TEMP_MIN-1;
    344a:	80 91 86 02 	lds	r24, 0x0286
    344e:	89 30       	cpi	r24, 0x09	; 9
    3450:	18 f4       	brcc	.+6      	; 0x3458 <menu_controller+0x2ea>
    3452:	89 e0       	ldi	r24, 0x09	; 9
    3454:	80 93 86 02 	sts	0x0286, r24
        }
        if ( kb_events & KB_EVENT_PROG ) {
    3458:	42 ff       	sbrs	r20, 2
    345a:	13 c0       	rjmp	.+38     	; 0x3482 <menu_controller+0x314>
            temperature_table[menu_state-menu_preset_temp0]=menu_set_temp;
    345c:	e9 2f       	mov	r30, r25
    345e:	f0 e0       	ldi	r31, 0x00	; 0
    3460:	eb 5a       	subi	r30, 0xAB	; 171
    3462:	fc 4f       	sbci	r31, 0xFC	; 252
    3464:	80 91 86 02 	lds	r24, 0x0286
    3468:	80 83       	st	Z, r24
            eeprom_config_save(menu_state+((temperature_table-config_raw)-menu_preset_temp0));
    346a:	80 91 8a 03 	lds	r24, 0x038A
    346e:	81 50       	subi	r24, 0x01	; 1
    3470:	43 dc       	rcall	.-1914   	; 0x2cf8 <eeprom_config_save>
            menu_state++; // menu_preset_temp3+1 == menu_home
    3472:	80 91 8a 03 	lds	r24, 0x038A
    3476:	8f 5f       	subi	r24, 0xFF	; 255
    3478:	80 93 8a 03 	sts	0x038A, r24
            CTL_update_temp_auto();
    347c:	10 92 2e 01 	sts	0x012E, r1
    3480:	71 c0       	rjmp	.+226    	; 0x3564 <menu_controller+0x3f6>
            ret=true; 
        } else if ( kb_events & KB_EVENT_AUTO ) { // exit without save
    3482:	44 ff       	sbrs	r20, 4
    3484:	6d c0       	rjmp	.+218    	; 0x3560 <menu_controller+0x3f2>
    3486:	53 c0       	rjmp	.+166    	; 0x352e <menu_controller+0x3c0>
        }
		break;

    default:
    case menu_lock:        // "bloc" message
        if (menu_auto_update_timeout==0) { menu_state=menu_home; ret=true; } 
    3488:	80 91 15 01 	lds	r24, 0x0115
    348c:	88 23       	and	r24, r24
    348e:	09 f0       	breq	.+2      	; 0x3492 <menu_controller+0x324>
    3490:	67 c0       	rjmp	.+206    	; 0x3560 <menu_controller+0x3f2>
    3492:	4d c0       	rjmp	.+154    	; 0x352e <menu_controller+0x3c0>
        break;        
    case menu_service1:     // service menu        
    case menu_service2:        
        if (kb_events & KB_EVENT_AUTO) { 
    3494:	44 fd       	sbrc	r20, 4
    3496:	4b c0       	rjmp	.+150    	; 0x352e <menu_controller+0x3c0>
            menu_state=menu_home; 
            ret=true;
        } else if (kb_events & KB_EVENT_C) { 
    3498:	43 ff       	sbrs	r20, 3
    349a:	02 c0       	rjmp	.+4      	; 0x34a0 <menu_controller+0x332>
            menu_state=menu_service_watch; 
    349c:	8e e0       	ldi	r24, 0x0E	; 14
    349e:	4c c0       	rjmp	.+152    	; 0x3538 <menu_controller+0x3ca>
            ret=true;
        } else if (kb_events & KB_EVENT_PROG) {
    34a0:	42 ff       	sbrs	r20, 2
    34a2:	0b c0       	rjmp	.+22     	; 0x34ba <menu_controller+0x34c>
            if (menu_state == menu_service2) {
    34a4:	9d 30       	cpi	r25, 0x0D	; 13
    34a6:	29 f4       	brne	.+10     	; 0x34b2 <menu_controller+0x344>
                eeprom_config_save(service_idx); // save current value
    34a8:	80 91 16 01 	lds	r24, 0x0116
    34ac:	25 dc       	rcall	.-1974   	; 0x2cf8 <eeprom_config_save>
                menu_state = menu_service1;
    34ae:	8c e0       	ldi	r24, 0x0C	; 12
    34b0:	01 c0       	rjmp	.+2      	; 0x34b4 <menu_controller+0x346>
            } else {
                menu_state = menu_service2;
    34b2:	8d e0       	ldi	r24, 0x0D	; 13
    34b4:	80 93 8a 03 	sts	0x038A, r24
    34b8:	53 c0       	rjmp	.+166    	; 0x3560 <menu_controller+0x3f2>
    34ba:	c1 2f       	mov	r28, r17
    34bc:	dd 27       	eor	r29, r29
    34be:	c7 fd       	sbrc	r28, 7
    34c0:	d0 95       	com	r29
            }
        } else {
            if (menu_state == menu_service1) {
    34c2:	9c 30       	cpi	r25, 0x0C	; 12
    34c4:	61 f4       	brne	.+24     	; 0x34de <menu_controller+0x370>
                // change index
                service_idx = (service_idx+wheel+CONFIG_RAW_SIZE)%CONFIG_RAW_SIZE;
    34c6:	80 91 16 01 	lds	r24, 0x0116
    34ca:	c8 0f       	add	r28, r24
    34cc:	d1 1d       	adc	r29, r1
    34ce:	ce 01       	movw	r24, r28
    34d0:	c0 96       	adiw	r24, 0x30	; 48
    34d2:	60 e3       	ldi	r22, 0x30	; 48
    34d4:	70 e0       	ldi	r23, 0x00	; 0
    34d6:	da d2       	rcall	.+1460   	; 0x3a8c <__udivmodhi4>
    34d8:	80 93 16 01 	sts	0x0116, r24
    34dc:	41 c0       	rjmp	.+130    	; 0x3560 <menu_controller+0x3f2>
            } else {
                // change value in RAM, to save press PROG
                int16_t min = (int16_t)config_min(service_idx);
    34de:	80 91 16 01 	lds	r24, 0x0116
    34e2:	62 e0       	ldi	r22, 0x02	; 2
    34e4:	e5 db       	rcall	.-2102   	; 0x2cb0 <config_read>
    34e6:	18 2f       	mov	r17, r24
    34e8:	e8 2e       	mov	r14, r24
    34ea:	ff 24       	eor	r15, r15
                int16_t max_min_1 = (int16_t)(config_max(service_idx))-min+1;
    34ec:	80 91 16 01 	lds	r24, 0x0116
    34f0:	63 e0       	ldi	r22, 0x03	; 3
    34f2:	de db       	rcall	.-2116   	; 0x2cb0 <config_read>
    34f4:	68 2f       	mov	r22, r24
    34f6:	70 e0       	ldi	r23, 0x00	; 0
    34f8:	6f 5f       	subi	r22, 0xFF	; 255
    34fa:	7f 4f       	sbci	r23, 0xFF	; 255
    34fc:	6e 19       	sub	r22, r14
    34fe:	7f 09       	sbc	r23, r15
                config_raw[service_idx] = (uint8_t) (
    3500:	20 91 16 01 	lds	r18, 0x0116
    3504:	e2 2f       	mov	r30, r18
    3506:	f0 e0       	ldi	r31, 0x00	; 0
    3508:	ea 5a       	subi	r30, 0xAA	; 170
    350a:	fc 4f       	sbci	r31, 0xFC	; 252
    350c:	80 81       	ld	r24, Z
    350e:	c8 0f       	add	r28, r24
    3510:	d1 1d       	adc	r29, r1
    3512:	ce 19       	sub	r28, r14
    3514:	df 09       	sbc	r29, r15
    3516:	ce 01       	movw	r24, r28
    3518:	86 0f       	add	r24, r22
    351a:	97 1f       	adc	r25, r23
    351c:	cb d2       	rcall	.+1430   	; 0x3ab4 <__divmodhi4>
    351e:	18 0f       	add	r17, r24
    3520:	10 83       	st	Z, r17
                        ((int16_t)(config_raw[service_idx])+(int16_t)wheel-min+max_min_1)%max_min_1+min);
                if (service_idx==0) LCD_Init();
    3522:	22 23       	and	r18, r18
    3524:	e9 f4       	brne	.+58     	; 0x3560 <menu_controller+0x3f2>
    3526:	82 d0       	rcall	.+260    	; 0x362c <LCD_Init>
    3528:	1b c0       	rjmp	.+54     	; 0x3560 <menu_controller+0x3f2>
            }
        }
        break;        
	case menu_service_watch:
        if (kb_events & KB_EVENT_AUTO) { 
    352a:	44 ff       	sbrs	r20, 4
    352c:	02 c0       	rjmp	.+4      	; 0x3532 <menu_controller+0x3c4>
            menu_state=menu_home; 
    352e:	87 e0       	ldi	r24, 0x07	; 7
    3530:	03 c0       	rjmp	.+6      	; 0x3538 <menu_controller+0x3ca>
            ret=true;
        } else if (kb_events & KB_EVENT_C) { 
    3532:	43 ff       	sbrs	r20, 3
    3534:	04 c0       	rjmp	.+8      	; 0x353e <menu_controller+0x3d0>
            menu_state=menu_service1; 
    3536:	8c e0       	ldi	r24, 0x0C	; 12
    3538:	80 93 8a 03 	sts	0x038A, r24
    353c:	13 c0       	rjmp	.+38     	; 0x3564 <menu_controller+0x3f6>
            ret=true;
        } else {
            service_watch_n=(service_watch_n+wheel+WATCH_N)%WATCH_N;
    353e:	80 91 84 02 	lds	r24, 0x0284
    3542:	90 e0       	ldi	r25, 0x00	; 0
    3544:	0e 96       	adiw	r24, 0x0e	; 14
    3546:	21 2f       	mov	r18, r17
    3548:	33 27       	eor	r19, r19
    354a:	27 fd       	sbrc	r18, 7
    354c:	30 95       	com	r19
    354e:	82 0f       	add	r24, r18
    3550:	93 1f       	adc	r25, r19
    3552:	6e e0       	ldi	r22, 0x0E	; 14
    3554:	70 e0       	ldi	r23, 0x00	; 0
    3556:	ae d2       	rcall	.+1372   	; 0x3ab4 <__divmodhi4>
    3558:	80 93 84 02 	sts	0x0284, r24
            if (wheel != 0) ret=true;
    355c:	11 23       	and	r17, r17
    355e:	11 f4       	brne	.+4      	; 0x3564 <menu_controller+0x3f6>
    3560:	80 e0       	ldi	r24, 0x00	; 0
    3562:	01 c0       	rjmp	.+2      	; 0x3566 <menu_controller+0x3f8>
    3564:	81 e0       	ldi	r24, 0x01	; 1
 * \returns true for controler restart
 ******************************************************************************/

static bool events_common(void) {
    bool ret=false;
    if (kb_events & KB_EVENT_LOCK_LONG) {
    3566:	20 91 30 02 	lds	r18, 0x0230
    356a:	30 91 31 02 	lds	r19, 0x0231
    356e:	90 91 85 02 	lds	r25, 0x0285
    3572:	33 ff       	sbrs	r19, 3
    3574:	0d c0       	rjmp	.+26     	; 0x3590 <menu_controller+0x422>
        menu_auto_update_timeout=LONG_PRESS_THLD+1;
    3576:	85 e0       	ldi	r24, 0x05	; 5
    3578:	80 93 15 01 	sts	0x0115, r24
        locked = ! locked;
    357c:	80 e0       	ldi	r24, 0x00	; 0
    357e:	99 23       	and	r25, r25
    3580:	09 f4       	brne	.+2      	; 0x3584 <menu_controller+0x416>
    3582:	81 e0       	ldi	r24, 0x01	; 1
    3584:	80 93 85 02 	sts	0x0285, r24
        menu_state = (locked)?menu_lock:menu_home;
    3588:	88 23       	and	r24, r24
    358a:	91 f0       	breq	.+36     	; 0x35b0 <menu_controller+0x442>
    358c:	8b e0       	ldi	r24, 0x0B	; 11
    358e:	15 c0       	rjmp	.+42     	; 0x35ba <menu_controller+0x44c>
        ret=true;
    } else if (!locked) {    
    3590:	99 23       	and	r25, r25
    3592:	79 f5       	brne	.+94     	; 0x35f2 <menu_controller+0x484>
        if (kb_events & KB_EVENT_ALL_LONG) { // service menu
    3594:	34 ff       	sbrs	r19, 4
    3596:	02 c0       	rjmp	.+4      	; 0x359c <menu_controller+0x42e>
            menu_state = menu_service1;
    3598:	8c e0       	ldi	r24, 0x0C	; 12
    359a:	0f c0       	rjmp	.+30     	; 0x35ba <menu_controller+0x44c>
            ret=true;
        } else if ( kb_events & KB_EVENT_AUTO_LONG ) {
    359c:	32 ff       	sbrs	r19, 2
    359e:	02 c0       	rjmp	.+4      	; 0x35a4 <menu_controller+0x436>
    		menu_state=menu_set_year;
    35a0:	8f e0       	ldi	r24, 0x0F	; 15
    35a2:	0b c0       	rjmp	.+22     	; 0x35ba <menu_controller+0x44c>
            ret=true; 
        } else if ( kb_events & KB_EVENT_PROG_LONG ) {
    35a4:	30 ff       	sbrs	r19, 0
    35a6:	02 c0       	rjmp	.+4      	; 0x35ac <menu_controller+0x43e>
			menu_state=menu_set_timmer_dow_start;
    35a8:	84 e1       	ldi	r24, 0x14	; 20
    35aa:	07 c0       	rjmp	.+14     	; 0x35ba <menu_controller+0x44c>
            ret=true; 
        } else if ( kb_events & KB_EVENT_NONE_LONG ) {
    35ac:	35 ff       	sbrs	r19, 5
    35ae:	02 c0       	rjmp	.+4      	; 0x35b4 <menu_controller+0x446>
            menu_state=menu_home; // retun to main home screen
    35b0:	87 e0       	ldi	r24, 0x07	; 7
    35b2:	03 c0       	rjmp	.+6      	; 0x35ba <menu_controller+0x44c>
            ret=true;
        } else if ( kb_events & KB_EVENT_C_LONG ) {
    35b4:	31 ff       	sbrs	r19, 1
    35b6:	1d c0       	rjmp	.+58     	; 0x35f2 <menu_controller+0x484>
            menu_state=menu_preset_temp0; 
    35b8:	82 e0       	ldi	r24, 0x02	; 2
    35ba:	80 93 8a 03 	sts	0x038A, r24
            if (wheel != 0) ret=true;
        }
        break;
    }
    if (events_common()) ret=true;
    if (ret && (service_idx<CONFIG_RAW_SIZE)) {
    35be:	10 91 16 01 	lds	r17, 0x0116
    35c2:	10 33       	cpi	r17, 0x30	; 48
    35c4:	58 f4       	brcc	.+22     	; 0x35dc <menu_controller+0x46e>
        // back config to default value
        config_raw[service_idx] = config_value(service_idx);
    35c6:	81 2f       	mov	r24, r17
    35c8:	60 e0       	ldi	r22, 0x00	; 0
    35ca:	72 db       	rcall	.-2332   	; 0x2cb0 <config_read>
    35cc:	e1 2f       	mov	r30, r17
    35ce:	f0 e0       	ldi	r31, 0x00	; 0
    35d0:	ea 5a       	subi	r30, 0xAA	; 170
    35d2:	fc 4f       	sbci	r31, 0xFC	; 252
    35d4:	80 83       	st	Z, r24
        service_idx = CONFIG_RAW_SIZE;
    35d6:	80 e3       	ldi	r24, 0x30	; 48
    35d8:	80 93 16 01 	sts	0x0116, r24
    35dc:	81 e0       	ldi	r24, 0x01	; 1
    }
    kb_events = 0; // clear unused keys
    35de:	10 92 31 02 	sts	0x0231, r1
    35e2:	10 92 30 02 	sts	0x0230, r1
    return ret;
} 
    35e6:	df 91       	pop	r29
    35e8:	cf 91       	pop	r28
    35ea:	1f 91       	pop	r17
    35ec:	ff 90       	pop	r15
    35ee:	ef 90       	pop	r14
    35f0:	08 95       	ret
            if (wheel != 0) ret=true;
        }
        break;
    }
    if (events_common()) ret=true;
    if (ret && (service_idx<CONFIG_RAW_SIZE)) {
    35f2:	88 23       	and	r24, r24
    35f4:	a1 f3       	breq	.-24     	; 0x35de <menu_controller+0x470>
    35f6:	e3 cf       	rjmp	.-58     	; 0x35be <menu_controller+0x450>

000035f8 <LCD_AllSegments>:
 *  \param mode  \ref LCD_MODE_ON, \ref LCD_MODE_OFF
 ******************************************************************************/
void LCD_AllSegments(uint8_t mode)
{
    uint8_t i;
    uint8_t val = (mode==LCD_MODE_ON)?0xff:0x00;
    35f8:	83 30       	cpi	r24, 0x03	; 3
    35fa:	11 f0       	breq	.+4      	; 0x3600 <LCD_AllSegments+0x8>
    35fc:	20 e0       	ldi	r18, 0x00	; 0
    35fe:	01 c0       	rjmp	.+2      	; 0x3602 <LCD_AllSegments+0xa>
    3600:	2f ef       	ldi	r18, 0xFF	; 255
    3602:	80 e0       	ldi	r24, 0x00	; 0
    3604:	90 e0       	ldi	r25, 0x00	; 0

    for (i=0; i<LCD_REGISTER_COUNT*LCD_BITPLANES; i++){
            ((uint8_t *)LCD_Data)[i] = val;
    3606:	fc 01       	movw	r30, r24
    3608:	e5 57       	subi	r30, 0x75	; 117
    360a:	fc 4f       	sbci	r31, 0xFC	; 252
    360c:	20 83       	st	Z, r18
    360e:	01 96       	adiw	r24, 0x01	; 1
void LCD_AllSegments(uint8_t mode)
{
    uint8_t i;
    uint8_t val = (mode==LCD_MODE_ON)?0xff:0x00;

    for (i=0; i<LCD_REGISTER_COUNT*LCD_BITPLANES; i++){
    3610:	82 31       	cpi	r24, 0x12	; 18
    3612:	91 05       	cpc	r25, r1
    3614:	c1 f7       	brne	.-16     	; 0x3606 <LCD_AllSegments+0xe>
            ((uint8_t *)LCD_Data)[i] = val;
    }
	LCD_used_bitplanes=1;
    3616:	91 e0       	ldi	r25, 0x01	; 1
    3618:	90 93 17 01 	sts	0x0117, r25
    LCD_Update();
    361c:	80 91 e4 00 	lds	r24, 0x00E4
    3620:	88 60       	ori	r24, 0x08	; 8
    3622:	80 93 e4 00 	sts	0x00E4, r24
    3626:	90 93 8b 02 	sts	0x028B, r25
}
    362a:	08 95       	ret

0000362c <LCD_Init>:
 *  - Set up the LCD (timing, contrast, etc.)
 ******************************************************************************/
void LCD_Init(void)
{
    // Clear segment buffer.
    LCD_AllSegments(false);
    362c:	80 e0       	ldi	r24, 0x00	; 0
    362e:	e4 df       	rcall	.-56     	; 0x35f8 <LCD_AllSegments>

    //Set the initial LCD contrast level
    LCDCCR = (config.lcd_contrast << LCDCC0);
    3630:	80 91 56 03 	lds	r24, 0x0356
    3634:	80 93 e7 00 	sts	0x00E7, r24

    // LCD Control and Status Register B
    //   - clock source is TOSC1 pin
    //   - COM0:2 connected
    //   - SEG0:22 connected
	LCDCRB = (1<<LCDCS) | (1<<LCDMUX1) | (1<<LCDPM2)| (1<<LCDPM0);
    3638:	85 ea       	ldi	r24, 0xA5	; 165
    363a:	80 93 e5 00 	sts	0x00E5, r24

    // LCD Frame Rate Register
    //   - LCD Prescaler Select N=16       @32.768Hz ->   2048Hz
    //   - LCD Duty Cycle 1/3 (K=6)       2048Hz / 6 -> 341,33Hz
    //   - LCD Clock Divider  (D=5)     341,33Hz / 7 ->  47,76Hz
    LCDFRR = ((1<<LCDCD2)|(1<<LCDCD1));
    363e:	86 e0       	ldi	r24, 0x06	; 6
    3640:	80 93 e6 00 	sts	0x00E6, r24

    // LCD Control and Status Register A
    //  - Enable LCD
    //  - Set Low Power Waveform
    LCDCRA = (1<<LCDEN) | (1<<LCDAB);
    3644:	e4 ee       	ldi	r30, 0xE4	; 228
    3646:	f0 e0       	ldi	r31, 0x00	; 0
    3648:	80 ec       	ldi	r24, 0xC0	; 192
    364a:	80 83       	st	Z, r24

    // Enable LCD start of frame interrupt
    LCDCRA |= (1<<LCDIE);
    364c:	80 81       	ld	r24, Z
    364e:	88 60       	ori	r24, 0x08	; 8
    3650:	80 83       	st	Z, r24

	LCD_used_bitplanes=1;
    3652:	81 e0       	ldi	r24, 0x01	; 1
    3654:	80 93 17 01 	sts	0x0117, r24
}
    3658:	08 95       	ret

0000365a <LCD_HourBarBitmap>:
 *
 *  \param bitmap of hour bar segment 0-23 (bit0 is segment0 etc.)
 *  \note blink is not supported
 ******************************************************************************/
void LCD_HourBarBitmap(uint32_t bitmap)
{
    365a:	ef 92       	push	r14
    365c:	ff 92       	push	r15
    365e:	0f 93       	push	r16
    3660:	cf 93       	push	r28
    3662:	df 93       	push	r29
        uint8_t segment = pgm_read_byte(&LCD_SegHourBarOffsetTablePrgMem[i]);
        LCD_SetSeg(segment, (((uint8_t)bitmap & 1)? LCD_MODE_ON : LCD_MODE_OFF ));
        bitmap = bitmap>>1;
    }
#else
    asm volatile (
    3664:	7b 01       	movw	r14, r22
    3666:	08 2f       	mov	r16, r24
    3668:	c3 e4       	ldi	r28, 0x43	; 67
    366a:	d2 e0       	ldi	r29, 0x02	; 2

0000366c <L2>:
    366c:	fe 01       	movw	r30, r28
    366e:	84 91       	lpm	r24, Z+
    3670:	66 27       	eor	r22, r22
    3672:	06 95       	lsr	r16
    3674:	f7 94       	ror	r15
    3676:	e7 94       	ror	r14
    3678:	08 f4       	brcc	.+2      	; 0x367c <L3>
    367a:	63 e0       	ldi	r22, 0x03	; 3

0000367c <L3>:
    367c:	09 d0       	rcall	.+18     	; 0x3690 <LCD_SetSeg>
    367e:	21 96       	adiw	r28, 0x01	; 1
    3680:	cb 35       	cpi	r28, 0x5B	; 91
    3682:	a1 f7       	brne	.-24     	; 0x366c <L2>
    :
    : "I" (LCD_MODE_ON)
    : "r14", "r15", "r16", "r28", "r29", "r30", "r31"
    );
#endif
}
    3684:	df 91       	pop	r29
    3686:	cf 91       	pop	r28
    3688:	0f 91       	pop	r16
    368a:	ff 90       	pop	r15
    368c:	ef 90       	pop	r14
    368e:	08 95       	ret

00003690 <LCD_SetSeg>:
{
    uint8_t r;
    uint8_t b;

    // Register = segment DIV 8
    r = seg / 8;
    3690:	48 2f       	mov	r20, r24
    3692:	46 95       	lsr	r20
    3694:	46 95       	lsr	r20
    3696:	46 95       	lsr	r20
    // Bitposition = segment mod 8
    b = 1<<(seg % 8);
    3698:	87 70       	andi	r24, 0x07	; 7
    369a:	21 e0       	ldi	r18, 0x01	; 1
    369c:	30 e0       	ldi	r19, 0x00	; 0
    369e:	01 c0       	rjmp	.+2      	; 0x36a2 <LCD_SetSeg+0x12>
    36a0:	22 0f       	add	r18, r18
    36a2:	8a 95       	dec	r24
    36a4:	ea f7       	brpl	.-6      	; 0x36a0 <LCD_SetSeg+0x10>

    // Set bits in each bitplane
	#if LCD_BITPLANES == 2
        if (mode & 1){
    36a6:	36 2f       	mov	r19, r22
    36a8:	e4 2f       	mov	r30, r20
    36aa:	f0 e0       	ldi	r31, 0x00	; 0
    36ac:	60 ff       	sbrs	r22, 0
    36ae:	05 c0       	rjmp	.+10     	; 0x36ba <LCD_SetSeg+0x2a>
            // Set Bit in Bitplane if ON (0b11) or Blinkmode 1 (0b01)
            LCD_Data[0][r] |= b;
    36b0:	e5 57       	subi	r30, 0x75	; 117
    36b2:	fc 4f       	sbci	r31, 0xFC	; 252
    36b4:	80 81       	ld	r24, Z
    36b6:	82 2b       	or	r24, r18
    36b8:	06 c0       	rjmp	.+12     	; 0x36c6 <LCD_SetSeg+0x36>
        } else {
            // Clear Bit in Bitplane if OFF (0b00) or Blinkmode 2 (0b10)
            LCD_Data[0][r] &= ~b;
    36ba:	e5 57       	subi	r30, 0x75	; 117
    36bc:	fc 4f       	sbci	r31, 0xFC	; 252
    36be:	90 81       	ld	r25, Z
    36c0:	82 2f       	mov	r24, r18
    36c2:	80 95       	com	r24
    36c4:	89 23       	and	r24, r25
    36c6:	80 83       	st	Z, r24
    36c8:	e4 2f       	mov	r30, r20
    36ca:	f0 e0       	ldi	r31, 0x00	; 0
        } 
        if (mode & 2){
    36cc:	31 ff       	sbrs	r19, 1
    36ce:	05 c0       	rjmp	.+10     	; 0x36da <LCD_SetSeg+0x4a>
            // Set Bit in Bitplane if ON (0b11) or Blinkmode 2 (0b10)
            LCD_Data[1][r] |= b;
    36d0:	e5 57       	subi	r30, 0x75	; 117
    36d2:	fc 4f       	sbci	r31, 0xFC	; 252
    36d4:	81 85       	ldd	r24, Z+9	; 0x09
    36d6:	28 2b       	or	r18, r24
    36d8:	05 c0       	rjmp	.+10     	; 0x36e4 <LCD_SetSeg+0x54>
        } else {
            // Clear Bit in Bitplane if OFF (0b00) or Blinkmode 1 (0b01)
            LCD_Data[1][r] &= ~b;
    36da:	e5 57       	subi	r30, 0x75	; 117
    36dc:	fc 4f       	sbci	r31, 0xFC	; 252
    36de:	81 85       	ldd	r24, Z+9	; 0x09
    36e0:	20 95       	com	r18
    36e2:	28 23       	and	r18, r24
    36e4:	21 87       	std	Z+9, r18	; 0x09
 *  \note copy LCD_Data to LCDREG
 *
 ******************************************************************************/
static void LCD_calc_used_bitplanes(uint8_t mode) {
    uint8_t i;
	if ((mode==LCD_MODE_BLINK_1)||(mode==LCD_MODE_BLINK_2)) {
    36e6:	61 50       	subi	r22, 0x01	; 1
    36e8:	62 30       	cpi	r22, 0x02	; 2
    36ea:	68 f0       	brcs	.+26     	; 0x3706 <LCD_SetSeg+0x76>
		LCD_used_bitplanes=2;
		return; // just optimalization
	} 
	// mode must be LCD_MODE_ON or LCD_MODE_OFF
	if (LCD_used_bitplanes==1) {
    36ec:	80 91 17 01 	lds	r24, 0x0117
    36f0:	81 30       	cpi	r24, 0x01	; 1
    36f2:	a9 f0       	breq	.+42     	; 0x371e <LCD_SetSeg+0x8e>
    36f4:	20 e0       	ldi	r18, 0x00	; 0
    36f6:	30 e0       	ldi	r19, 0x00	; 0

    for (i=0; i<LCD_REGISTER_COUNT; i++){
		#if LCD_BITPLANES != 2
			#error optimized for 2 bitplanes // TODO?
		#endif
		if (LCD_Data[0][i] != LCD_Data[1][i]) {
    36f8:	f9 01       	movw	r30, r18
    36fa:	e5 57       	subi	r30, 0x75	; 117
    36fc:	fc 4f       	sbci	r31, 0xFC	; 252
    36fe:	90 81       	ld	r25, Z
    3700:	81 85       	ldd	r24, Z+9	; 0x09
    3702:	98 17       	cp	r25, r24
    3704:	21 f0       	breq	.+8      	; 0x370e <LCD_SetSeg+0x7e>
			LCD_used_bitplanes=2;
    3706:	82 e0       	ldi	r24, 0x02	; 2
    3708:	80 93 17 01 	sts	0x0117, r24
    370c:	08 95       	ret
    370e:	2f 5f       	subi	r18, 0xFF	; 255
    3710:	3f 4f       	sbci	r19, 0xFF	; 255
	// mode must be LCD_MODE_ON or LCD_MODE_OFF
	if (LCD_used_bitplanes==1) {
		return; // just optimalization, nothing to do
	} 

    for (i=0; i<LCD_REGISTER_COUNT; i++){
    3712:	29 30       	cpi	r18, 0x09	; 9
    3714:	31 05       	cpc	r19, r1
    3716:	81 f7       	brne	.-32     	; 0x36f8 <LCD_SetSeg+0x68>
		if (LCD_Data[0][i] != LCD_Data[1][i]) {
			LCD_used_bitplanes=2;
			return; // it is done
		}
	}
	LCD_used_bitplanes=1;
    3718:	81 e0       	ldi	r24, 0x01	; 1
    371a:	80 93 17 01 	sts	0x0117, r24
    371e:	08 95       	ret

00003720 <LCD_SetHourBarSeg>:
 ******************************************************************************/
void LCD_SetHourBarSeg(uint8_t seg, uint8_t mode)
{
    uint8_t segment;
    // Get segment number for this element
    segment = pgm_read_byte(&LCD_SegHourBarOffsetTablePrgMem[seg]);
    3720:	e3 e4       	ldi	r30, 0x43	; 67
    3722:	f2 e0       	ldi	r31, 0x02	; 2
    3724:	e8 0f       	add	r30, r24
    3726:	f1 1d       	adc	r31, r1
    3728:	e4 91       	lpm	r30, Z+
    // Set segment 
    LCD_SetSeg(segment, mode);
    372a:	8e 2f       	mov	r24, r30
}
    372c:	b1 cf       	rjmp	.-158    	; 0x3690 <LCD_SetSeg>

0000372e <LCD_PrintChar>:
 *  \param value
 *        - 0: clears all digits,
 *        - other: set all digits
 ******************************************************************************/
void LCD_PrintChar(uint8_t value, uint8_t pos, uint8_t mode)
{
    372e:	ef 92       	push	r14
    3730:	ff 92       	push	r15
    3732:	0f 93       	push	r16
    3734:	1f 93       	push	r17
    3736:	cf 93       	push	r28
    3738:	df 93       	push	r29
    373a:	e4 2e       	mov	r14, r20
    uint8_t seg;
    uint8_t i;
    uint8_t mask;

    // Boundary Check 
    if ((pos < LCD_MAX_POS) && (value < LCD_MAX_CHARS)) {
    373c:	64 30       	cpi	r22, 0x04	; 4
    373e:	08 f5       	brcc	.+66     	; 0x3782 <LCD_PrintChar+0x54>
    3740:	88 32       	cpi	r24, 0x28	; 40
    3742:	f8 f4       	brcc	.+62     	; 0x3782 <LCD_PrintChar+0x54>

        // Get Fieldbase for Position
        fieldbase = pgm_read_byte(&LCD_FieldOffsetTablePrgMem[pos]);
    3744:	e6 2f       	mov	r30, r22
    3746:	f0 e0       	ldi	r31, 0x00	; 0
    3748:	e8 5c       	subi	r30, 0xC8	; 200
    374a:	fd 4f       	sbci	r31, 0xFD	; 253
    374c:	f4 90       	lpm	r15, Z+

        // Get Bitmap for Value
        bitmap = pgm_read_byte(&LCD_CharTablePrgMem[value]);
    374e:	e8 2f       	mov	r30, r24
    3750:	f0 e0       	ldi	r31, 0x00	; 0
    3752:	e0 54       	subi	r30, 0x40	; 64
    3754:	fe 4f       	sbci	r31, 0xFE	; 254
    3756:	04 91       	lpm	r16, Z+
    3758:	cc e3       	ldi	r28, 0x3C	; 60
    375a:	d2 e0       	ldi	r29, 0x02	; 2
    375c:	11 e0       	ldi	r17, 0x01	; 1
        mask = 1;

        // Set 7 Bits
        for (i=0; i<7; i++){
            seg = fieldbase + pgm_read_byte(&LCD_SegOffsetTablePrgMem[i]);
    375e:	fe 01       	movw	r30, r28
    3760:	94 91       	lpm	r25, Z+
            // Set or Clear?
            LCD_SetSeg(seg,((bitmap & mask)?mode:LCD_MODE_OFF));
    3762:	81 2f       	mov	r24, r17
    3764:	80 23       	and	r24, r16
    3766:	11 f4       	brne	.+4      	; 0x376c <LCD_PrintChar+0x3e>
    3768:	60 e0       	ldi	r22, 0x00	; 0
    376a:	01 c0       	rjmp	.+2      	; 0x376e <LCD_PrintChar+0x40>
    376c:	6e 2d       	mov	r22, r14
    376e:	89 2f       	mov	r24, r25
    3770:	8f 0d       	add	r24, r15
    3772:	8e df       	rcall	.-228    	; 0x3690 <LCD_SetSeg>
    3774:	21 96       	adiw	r28, 0x01	; 1
        // Get Bitmap for Value
        bitmap = pgm_read_byte(&LCD_CharTablePrgMem[value]);
        mask = 1;

        // Set 7 Bits
        for (i=0; i<7; i++){
    3776:	f2 e0       	ldi	r31, 0x02	; 2
    3778:	c3 34       	cpi	r28, 0x43	; 67
    377a:	df 07       	cpc	r29, r31
    377c:	11 f0       	breq	.+4      	; 0x3782 <LCD_PrintChar+0x54>
            seg = fieldbase + pgm_read_byte(&LCD_SegOffsetTablePrgMem[i]);
            // Set or Clear?
            LCD_SetSeg(seg,((bitmap & mask)?mode:LCD_MODE_OFF));
            mask <<= 1;
    377e:	11 0f       	add	r17, r17
    3780:	ee cf       	rjmp	.-36     	; 0x375e <LCD_PrintChar+0x30>
        }
    }
}
    3782:	cd b7       	in	r28, 0x3d	; 61
    3784:	de b7       	in	r29, 0x3e	; 62
    3786:	e6 e0       	ldi	r30, 0x06	; 6
    3788:	0d c2       	rjmp	.+1050   	; 0x3ba4 <__epilogue_restores__+0x18>

0000378a <LCD_PrintDec>:
 *  \param value value to be printed (0-99)
 *  \param pos   position in lcd 
 *  \param mode  \ref LCD_MODE_ON, \ref LCD_MODE_OFF, \ref LCD_MODE_BLINK_1
 ******************************************************************************/
void LCD_PrintDec(uint8_t value, uint8_t pos, uint8_t mode)
{
    378a:	ff 92       	push	r15
    378c:	0f 93       	push	r16
    378e:	1f 93       	push	r17
    3790:	08 2f       	mov	r16, r24
    3792:	16 2f       	mov	r17, r22
    3794:	f4 2e       	mov	r15, r20
    uint8_t tmp;
    // Boundary Check
    if ((pos <= 2) && (value < 100)) {
    3796:	63 30       	cpi	r22, 0x03	; 3
    3798:	70 f4       	brcc	.+28     	; 0x37b6 <LCD_PrintDec+0x2c>
    379a:	84 36       	cpi	r24, 0x64	; 100
    379c:	60 f4       	brcc	.+24     	; 0x37b6 <LCD_PrintDec+0x2c>
        // 1st Digit at 0 (2)
        tmp = value % 10;
        LCD_PrintChar(tmp, pos, mode);
    379e:	6a e0       	ldi	r22, 0x0A	; 10
    37a0:	5c d1       	rcall	.+696    	; 0x3a5a <__udivmodqi4>
    37a2:	89 2f       	mov	r24, r25
    37a4:	61 2f       	mov	r22, r17
    37a6:	c3 df       	rcall	.-122    	; 0x372e <LCD_PrintChar>
        pos++;
        // 2nd Digit at 1 (3)
        tmp = value / 10;
        LCD_PrintChar(tmp, pos, mode);
    37a8:	80 2f       	mov	r24, r16
    37aa:	6a e0       	ldi	r22, 0x0A	; 10
    37ac:	56 d1       	rcall	.+684    	; 0x3a5a <__udivmodqi4>
    37ae:	1f 5f       	subi	r17, 0xFF	; 255
    37b0:	61 2f       	mov	r22, r17
    37b2:	4f 2d       	mov	r20, r15
    37b4:	bc df       	rcall	.-136    	; 0x372e <LCD_PrintChar>
    }
}
    37b6:	1f 91       	pop	r17
    37b8:	0f 91       	pop	r16
    37ba:	ff 90       	pop	r15
    37bc:	08 95       	ret

000037be <LCD_PrintDecW>:
 *
 *  \param value value to be printed (0-9999)
 *  \param mode  \ref LCD_MODE_ON, \ref LCD_MODE_OFF, \ref LCD_MODE_BLINK_1
 ******************************************************************************/
void LCD_PrintDecW(uint16_t value, uint8_t mode)
{
    37be:	1f 93       	push	r17
    37c0:	cf 93       	push	r28
    37c2:	df 93       	push	r29
    37c4:	16 2f       	mov	r17, r22
    37c6:	ec 01       	movw	r28, r24
    37c8:	87 e2       	ldi	r24, 0x27	; 39
    37ca:	c0 31       	cpi	r28, 0x10	; 16
    37cc:	d8 07       	cpc	r29, r24
    37ce:	10 f0       	brcs	.+4      	; 0x37d4 <LCD_PrintDecW+0x16>
    37d0:	cf e0       	ldi	r28, 0x0F	; 15
    37d2:	d7 e2       	ldi	r29, 0x27	; 39
    if (value > 9999){
        value = 9999;        
    }
    // Print     
    tmp = (uint8_t) (value / 100);
    LCD_PrintDec(tmp, 2, mode);
    37d4:	ce 01       	movw	r24, r28
    37d6:	64 e6       	ldi	r22, 0x64	; 100
    37d8:	70 e0       	ldi	r23, 0x00	; 0
    37da:	58 d1       	rcall	.+688    	; 0x3a8c <__udivmodhi4>
    37dc:	86 2f       	mov	r24, r22
    37de:	62 e0       	ldi	r22, 0x02	; 2
    37e0:	41 2f       	mov	r20, r17
    37e2:	d3 df       	rcall	.-90     	; 0x378a <LCD_PrintDec>
    tmp = (uint8_t) (value % 100);
    LCD_PrintDec(tmp, 0, mode);
    37e4:	ce 01       	movw	r24, r28
    37e6:	64 e6       	ldi	r22, 0x64	; 100
    37e8:	70 e0       	ldi	r23, 0x00	; 0
    37ea:	50 d1       	rcall	.+672    	; 0x3a8c <__udivmodhi4>
    37ec:	60 e0       	ldi	r22, 0x00	; 0
    37ee:	41 2f       	mov	r20, r17
    37f0:	cc df       	rcall	.-104    	; 0x378a <LCD_PrintDec>
}
    37f2:	df 91       	pop	r29
    37f4:	cf 91       	pop	r28
    37f6:	1f 91       	pop	r17
    37f8:	08 95       	ret

000037fa <LCD_PrintDec3>:
 *  \param value value to be printed (0-999)
 *  \param pos   position in lcd
 *  \param mode  \ref LCD_MODE_ON, \ref LCD_MODE_OFF, \ref LCD_MODE_BLINK_1
 ******************************************************************************/
void LCD_PrintDec3(uint16_t value, uint8_t pos, uint8_t mode)
{
    37fa:	0f 93       	push	r16
    37fc:	1f 93       	push	r17
    37fe:	cf 93       	push	r28
    3800:	df 93       	push	r29
    3802:	9c 01       	movw	r18, r24
    3804:	16 2f       	mov	r17, r22
    3806:	04 2f       	mov	r16, r20
    if (value>999) value=999;
    if (pos <= 1) {
    3808:	62 30       	cpi	r22, 0x02	; 2
    380a:	b8 f4       	brcc	.+46     	; 0x383a <LCD_PrintDec3+0x40>
    380c:	ec 01       	movw	r28, r24
    380e:	83 e0       	ldi	r24, 0x03	; 3
    3810:	28 3e       	cpi	r18, 0xE8	; 232
    3812:	38 07       	cpc	r19, r24
    3814:	10 f0       	brcs	.+4      	; 0x381a <LCD_PrintDec3+0x20>
    3816:	c7 ee       	ldi	r28, 0xE7	; 231
    3818:	d3 e0       	ldi	r29, 0x03	; 3
        // 3nd Digit 
        LCD_PrintChar(value / 100, pos+2, mode);
    381a:	ce 01       	movw	r24, r28
    381c:	64 e6       	ldi	r22, 0x64	; 100
    381e:	70 e0       	ldi	r23, 0x00	; 0
    3820:	35 d1       	rcall	.+618    	; 0x3a8c <__udivmodhi4>
    3822:	86 2f       	mov	r24, r22
    3824:	61 2f       	mov	r22, r17
    3826:	6e 5f       	subi	r22, 0xFE	; 254
    3828:	40 2f       	mov	r20, r16
    382a:	81 df       	rcall	.-254    	; 0x372e <LCD_PrintChar>
        LCD_PrintDec(value%100, pos, mode);
    382c:	ce 01       	movw	r24, r28
    382e:	64 e6       	ldi	r22, 0x64	; 100
    3830:	70 e0       	ldi	r23, 0x00	; 0
    3832:	2c d1       	rcall	.+600    	; 0x3a8c <__udivmodhi4>
    3834:	61 2f       	mov	r22, r17
    3836:	40 2f       	mov	r20, r16
    3838:	a8 df       	rcall	.-176    	; 0x378a <LCD_PrintDec>
    }
}
    383a:	df 91       	pop	r29
    383c:	cf 91       	pop	r28
    383e:	1f 91       	pop	r17
    3840:	0f 91       	pop	r16
    3842:	08 95       	ret

00003844 <LCD_PrintTempInt>:
 *     min:  -999 => -9,9C
 *     max:  9999 => 99,9C
  *  \param mode  \ref LCD_MODE_ON, \ref LCD_MODE_OFF, \ref LCD_MODE_BLINK_1
 ******************************************************************************/
void LCD_PrintTempInt(int16_t temp, uint8_t mode)
{
    3844:	0f 93       	push	r16
    3846:	1f 93       	push	r17
    3848:	cf 93       	push	r28
    384a:	df 93       	push	r29
    384c:	16 2f       	mov	r17, r22
    384e:	ec 01       	movw	r28, r24
    3850:	8c ef       	ldi	r24, 0xFC	; 252
    3852:	c9 31       	cpi	r28, 0x19	; 25
    3854:	d8 07       	cpc	r29, r24
    3856:	14 f4       	brge	.+4      	; 0x385c <LCD_PrintTempInt+0x18>
    3858:	c9 e1       	ldi	r28, 0x19	; 25
    385a:	dc ef       	ldi	r29, 0xFC	; 252
    if (temp < -999){
        temp = -999;
    }
 
    // negative ?    
    neg = (temp < 0); 
    385c:	00 e0       	ldi	r16, 0x00	; 0
    385e:	d7 ff       	sbrs	r29, 7
    3860:	04 c0       	rjmp	.+8      	; 0x386a <LCD_PrintTempInt+0x26>
    3862:	01 e0       	ldi	r16, 0x01	; 1
    if (neg){        
        temp = -temp;    
    3864:	d0 95       	com	r29
    3866:	c1 95       	neg	r28
    3868:	df 4f       	sbci	r29, 0xFF	; 255
    } 

    // 1/100C not printed
    LCD_PrintDec3(temp/10, 1, mode);
    386a:	ce 01       	movw	r24, r28
    386c:	6a e0       	ldi	r22, 0x0A	; 10
    386e:	70 e0       	ldi	r23, 0x00	; 0
    3870:	21 d1       	rcall	.+578    	; 0x3ab4 <__divmodhi4>
    3872:	cb 01       	movw	r24, r22
    3874:	61 e0       	ldi	r22, 0x01	; 1
    3876:	41 2f       	mov	r20, r17
    3878:	c0 df       	rcall	.-128    	; 0x37fa <LCD_PrintDec3>
    
    if (neg){
    387a:	00 23       	and	r16, r16
    387c:	11 f0       	breq	.+4      	; 0x3882 <LCD_PrintTempInt+0x3e>
        // negative Temp      
        LCD_PrintChar(LCD_CHAR_neg, 3, mode);
    387e:	86 e1       	ldi	r24, 0x16	; 22
    3880:	04 c0       	rjmp	.+8      	; 0x388a <LCD_PrintTempInt+0x46>
    } else if (temp < 1000){
    3882:	c8 5e       	subi	r28, 0xE8	; 232
    3884:	d3 40       	sbci	r29, 0x03	; 3
    3886:	24 f4       	brge	.+8      	; 0x3890 <LCD_PrintTempInt+0x4c>
        // Temp < 10C
        LCD_PrintChar(LCD_CHAR_NULL, 3, mode);
    3888:	80 e2       	ldi	r24, 0x20	; 32
    388a:	63 e0       	ldi	r22, 0x03	; 3
    388c:	41 2f       	mov	r20, r17
    388e:	4f df       	rcall	.-354    	; 0x372e <LCD_PrintChar>
    }                             

    // Print C on last segment
    LCD_PrintChar(LCD_CHAR_C, 0, mode);
    3890:	8c e0       	ldi	r24, 0x0C	; 12
    3892:	60 e0       	ldi	r22, 0x00	; 0
    3894:	41 2f       	mov	r20, r17
    3896:	4b df       	rcall	.-362    	; 0x372e <LCD_PrintChar>
}
    3898:	df 91       	pop	r29
    389a:	cf 91       	pop	r28
    389c:	1f 91       	pop	r17
    389e:	0f 91       	pop	r16
    38a0:	08 95       	ret

000038a2 <LCD_PrintHex>:
 *  \param value value to be printed (0-0xff)
 *  \param pos   position in lcd 0:left, 1:right
 *  \param mode  \ref LCD_MODE_ON, \ref LCD_MODE_OFF, \ref LCD_MODE_BLINK_1
 ******************************************************************************/
void LCD_PrintHex(uint8_t value, uint8_t pos, uint8_t mode)
{
    38a2:	ff 92       	push	r15
    38a4:	0f 93       	push	r16
    38a6:	1f 93       	push	r17
    38a8:	08 2f       	mov	r16, r24
    38aa:	16 2f       	mov	r17, r22
    38ac:	f4 2e       	mov	r15, r20
    uint8_t tmp;
    // Boundary Check
    if (pos <= 2) {
    38ae:	63 30       	cpi	r22, 0x03	; 3
    38b0:	48 f4       	brcc	.+18     	; 0x38c4 <LCD_PrintHex+0x22>
        // 1st Digit at 0 (2)
        tmp = value % 16;
        LCD_PrintChar(tmp, pos, mode);
    38b2:	8f 70       	andi	r24, 0x0F	; 15
    38b4:	3c df       	rcall	.-392    	; 0x372e <LCD_PrintChar>
        pos++;
        // 2nd Digit at 1 (3)
        tmp = value / 16;
        LCD_PrintChar(tmp, pos, mode);
    38b6:	1f 5f       	subi	r17, 0xFF	; 255
    38b8:	80 2f       	mov	r24, r16
    38ba:	82 95       	swap	r24
    38bc:	8f 70       	andi	r24, 0x0F	; 15
    38be:	61 2f       	mov	r22, r17
    38c0:	4f 2d       	mov	r20, r15
    38c2:	35 df       	rcall	.-406    	; 0x372e <LCD_PrintChar>
    }
}
    38c4:	1f 91       	pop	r17
    38c6:	0f 91       	pop	r16
    38c8:	ff 90       	pop	r15
    38ca:	08 95       	ret

000038cc <LCD_PrintHexW>:
 *
 *  \param value value to be printed (0-0xffff)
 *  \param mode  \ref LCD_MODE_ON, \ref LCD_MODE_OFF, \ref LCD_MODE_BLINK_1
 ******************************************************************************/
void LCD_PrintHexW(uint16_t value, uint8_t mode)
{
    38cc:	0f 93       	push	r16
    38ce:	1f 93       	push	r17
    38d0:	08 2f       	mov	r16, r24
    38d2:	16 2f       	mov	r17, r22
    uint8_t tmp;
    // Print     
    tmp = (uint8_t) (value >> 8);
    LCD_PrintHex(tmp, 2, mode);
    38d4:	89 2f       	mov	r24, r25
    38d6:	62 e0       	ldi	r22, 0x02	; 2
    38d8:	41 2f       	mov	r20, r17
    38da:	e3 df       	rcall	.-58     	; 0x38a2 <LCD_PrintHex>
    tmp = (uint8_t) (value & 0xff);
    LCD_PrintHex(tmp, 0, mode);
    38dc:	80 2f       	mov	r24, r16
    38de:	60 e0       	ldi	r22, 0x00	; 0
    38e0:	41 2f       	mov	r20, r17
    38e2:	df df       	rcall	.-66     	; 0x38a2 <LCD_PrintHex>
}
    38e4:	1f 91       	pop	r17
    38e6:	0f 91       	pop	r16
    38e8:	08 95       	ret

000038ea <LCD_PrintStringID>:
 *
 *  \note  something weird due to 7 Segments
 *
 *  \param mode  \ref LCD_MODE_ON, \ref LCD_MODE_OFF, \ref LCD_MODE_BLINK_1
 ******************************************************************************/
void LCD_PrintStringID(uint8_t id, uint8_t mode) {
    38ea:	0f 93       	push	r16
    38ec:	1f 93       	push	r17
    38ee:	cf 93       	push	r28
    38f0:	df 93       	push	r29
    38f2:	06 2f       	mov	r16, r22
    38f4:	c8 2f       	mov	r28, r24
    38f6:	d0 e0       	ldi	r29, 0x00	; 0
    38f8:	cc 0f       	add	r28, r28
    38fa:	dd 1f       	adc	r29, r29
    38fc:	cc 0f       	add	r28, r28
    38fe:	dd 1f       	adc	r29, r29
    3900:	c8 51       	subi	r28, 0x18	; 24
    3902:	de 4f       	sbci	r29, 0xFE	; 254
    3904:	13 e0       	ldi	r17, 0x03	; 3
    uint8_t i;
    uint8_t tmp;
    // Put 4 chars
    for (i=0; i<4; i++) {
        tmp = pgm_read_byte(&LCD_StringTable[id][i]);
    3906:	fe 01       	movw	r30, r28
    3908:	84 91       	lpm	r24, Z+
        LCD_PrintChar(tmp, 3-i, mode);
    390a:	61 2f       	mov	r22, r17
    390c:	40 2f       	mov	r20, r16
    390e:	0f df       	rcall	.-482    	; 0x372e <LCD_PrintChar>
    3910:	11 50       	subi	r17, 0x01	; 1
    3912:	21 96       	adiw	r28, 0x01	; 1
 ******************************************************************************/
void LCD_PrintStringID(uint8_t id, uint8_t mode) {
    uint8_t i;
    uint8_t tmp;
    // Put 4 chars
    for (i=0; i<4; i++) {
    3914:	1f 3f       	cpi	r17, 0xFF	; 255
    3916:	b9 f7       	brne	.-18     	; 0x3906 <LCD_PrintStringID+0x1c>
        tmp = pgm_read_byte(&LCD_StringTable[id][i]);
        LCD_PrintChar(tmp, 3-i, mode);
    }
    LCD_SetSeg(LCD_SEG_COL1, LCD_MODE_OFF);
    3918:	8b e3       	ldi	r24, 0x3B	; 59
    391a:	60 e0       	ldi	r22, 0x00	; 0
    391c:	b9 de       	rcall	.-654    	; 0x3690 <LCD_SetSeg>
}
    391e:	df 91       	pop	r29
    3920:	cf 91       	pop	r28
    3922:	1f 91       	pop	r17
    3924:	0f 91       	pop	r16
    3926:	08 95       	ret

00003928 <LCD_PrintTemp>:
 *     - TEMP_MAX+1          : \c ON  <BR>
 *     -    other: \c invalid <BR>
 *  \param mode  \ref LCD_MODE_ON, \ref LCD_MODE_OFF, \ref LCD_MODE_BLINK_1
 ******************************************************************************/
void LCD_PrintTemp(uint8_t temp, uint8_t mode)
{
    3928:	0f 93       	push	r16
    392a:	1f 93       	push	r17
    392c:	08 2f       	mov	r16, r24
    392e:	16 2f       	mov	r17, r22
    if (temp==TEMP_MIN-1){
    3930:	89 30       	cpi	r24, 0x09	; 9
    3932:	11 f4       	brne	.+4      	; 0x3938 <LCD_PrintTemp+0x10>
        // OFF
        LCD_PrintStringID(LCD_STRING_OFF,mode); 
    3934:	8c e0       	ldi	r24, 0x0C	; 12
    3936:	07 c0       	rjmp	.+14     	; 0x3946 <LCD_PrintTemp+0x1e>
    } else if (temp==TEMP_MAX+1){
    3938:	8d 33       	cpi	r24, 0x3D	; 61
    393a:	11 f4       	brne	.+4      	; 0x3940 <LCD_PrintTemp+0x18>
        // On
        LCD_PrintStringID(LCD_STRING_On,mode); 
    393c:	8d e0       	ldi	r24, 0x0D	; 13
    393e:	03 c0       	rjmp	.+6      	; 0x3946 <LCD_PrintTemp+0x1e>
    } else if (temp>TEMP_MAX+1){
    3940:	8e 33       	cpi	r24, 0x3E	; 62
    3942:	20 f0       	brcs	.+8      	; 0x394c <LCD_PrintTemp+0x24>
        // Error -E rr
        LCD_PrintStringID(LCD_STRING_Err,mode); 
    3944:	8b e0       	ldi	r24, 0x0B	; 11
    3946:	61 2f       	mov	r22, r17
    3948:	d0 df       	rcall	.-96     	; 0x38ea <LCD_PrintStringID>
    394a:	19 c0       	rjmp	.+50     	; 0x397e <LCD_PrintTemp+0x56>
    } else {
        LCD_PrintDec(temp>>1, 2, mode);
    394c:	86 95       	lsr	r24
    394e:	62 e0       	ldi	r22, 0x02	; 2
    3950:	41 2f       	mov	r20, r17
    3952:	1b df       	rcall	.-458    	; 0x378a <LCD_PrintDec>
        LCD_PrintChar(((temp&1)?5:0), 1, mode);        
    3954:	00 fd       	sbrc	r16, 0
    3956:	02 c0       	rjmp	.+4      	; 0x395c <LCD_PrintTemp+0x34>
    3958:	80 e0       	ldi	r24, 0x00	; 0
    395a:	01 c0       	rjmp	.+2      	; 0x395e <LCD_PrintTemp+0x36>
    395c:	85 e0       	ldi	r24, 0x05	; 5
    395e:	61 e0       	ldi	r22, 0x01	; 1
    3960:	41 2f       	mov	r20, r17
    3962:	e5 de       	rcall	.-566    	; 0x372e <LCD_PrintChar>
        if (temp < (100/5)) {
    3964:	04 31       	cpi	r16, 0x14	; 20
    3966:	20 f4       	brcc	.+8      	; 0x3970 <LCD_PrintTemp+0x48>
            LCD_PrintChar(LCD_CHAR_NULL, 3, mode);
    3968:	80 e2       	ldi	r24, 0x20	; 32
    396a:	63 e0       	ldi	r22, 0x03	; 3
    396c:	41 2f       	mov	r20, r17
    396e:	df de       	rcall	.-578    	; 0x372e <LCD_PrintChar>
        }        
        LCD_PrintChar(LCD_CHAR_C, 0, mode);
    3970:	8c e0       	ldi	r24, 0x0C	; 12
    3972:	60 e0       	ldi	r22, 0x00	; 0
    3974:	41 2f       	mov	r20, r17
    3976:	db de       	rcall	.-586    	; 0x372e <LCD_PrintChar>
        LCD_SetSeg(LCD_SEG_COL1, mode);
    3978:	8b e3       	ldi	r24, 0x3B	; 59
    397a:	61 2f       	mov	r22, r17
    397c:	89 de       	rcall	.-750    	; 0x3690 <LCD_SetSeg>
    }
}
    397e:	1f 91       	pop	r17
    3980:	0f 91       	pop	r16
    3982:	08 95       	ret

00003984 <task_lcd_update>:
 *  \note copy LCD_Data to LCDREG
 *
 ******************************************************************************/

void task_lcd_update(void) {
    if (++LCD_BlinkCounter > LCD_BLINK_FRAMES){
    3984:	80 91 8c 02 	lds	r24, 0x028C
    3988:	8f 5f       	subi	r24, 0xFF	; 255
    398a:	80 93 8c 02 	sts	0x028C, r24
    398e:	8d 30       	cpi	r24, 0x0D	; 13
    3990:	58 f0       	brcs	.+22     	; 0x39a8 <task_lcd_update+0x24>
		#if LCD_BITPLANES == 2
			// optimized version for LCD_BITPLANES == 2
			LCD_Bitplane = (LCD_Bitplane +1) & 1;
    3992:	80 91 8d 02 	lds	r24, 0x028D
    3996:	8f 5f       	subi	r24, 0xFF	; 255
    3998:	81 70       	andi	r24, 0x01	; 1
    399a:	80 93 8d 02 	sts	0x028D, r24
		#else
			LCD_Bitplane = (LCD_Bitplane +1) % LCD_BITPLANES;
		#endif
        LCD_BlinkCounter=0;
    399e:	10 92 8c 02 	sts	0x028C, r1
		LCD_force_update=1;
    39a2:	81 e0       	ldi	r24, 0x01	; 1
    39a4:	80 93 8b 02 	sts	0x028B, r24
    }


	if (LCD_force_update) {
    39a8:	80 91 8b 02 	lds	r24, 0x028B
    39ac:	88 23       	and	r24, r24
    39ae:	51 f1       	breq	.+84     	; 0x3a04 <task_lcd_update+0x80>
		LCD_force_update=0;
    39b0:	10 92 8b 02 	sts	0x028B, r1
		// Copy desired segment buffer to the real segments
    	LCDDR0 = LCD_Data[LCD_Bitplane][0];
    39b4:	80 91 8d 02 	lds	r24, 0x028D
    39b8:	90 e0       	ldi	r25, 0x00	; 0
    39ba:	fc 01       	movw	r30, r24
    39bc:	23 e0       	ldi	r18, 0x03	; 3
    39be:	ee 0f       	add	r30, r30
    39c0:	ff 1f       	adc	r31, r31
    39c2:	2a 95       	dec	r18
    39c4:	e1 f7       	brne	.-8      	; 0x39be <task_lcd_update+0x3a>
    39c6:	e8 0f       	add	r30, r24
    39c8:	f9 1f       	adc	r31, r25
    39ca:	e5 57       	subi	r30, 0x75	; 117
    39cc:	fc 4f       	sbci	r31, 0xFC	; 252
    39ce:	80 81       	ld	r24, Z
    39d0:	80 93 ec 00 	sts	0x00EC, r24
    	LCDDR1 = LCD_Data[LCD_Bitplane][1];
    39d4:	81 81       	ldd	r24, Z+1	; 0x01
    39d6:	80 93 ed 00 	sts	0x00ED, r24
    	LCDDR2 = LCD_Data[LCD_Bitplane][2];
    39da:	82 81       	ldd	r24, Z+2	; 0x02
    39dc:	80 93 ee 00 	sts	0x00EE, r24
    	LCDDR5 = LCD_Data[LCD_Bitplane][3];
    39e0:	83 81       	ldd	r24, Z+3	; 0x03
    39e2:	80 93 f1 00 	sts	0x00F1, r24
    	LCDDR6 = LCD_Data[LCD_Bitplane][4];
    39e6:	84 81       	ldd	r24, Z+4	; 0x04
    39e8:	80 93 f2 00 	sts	0x00F2, r24
    	LCDDR7 = LCD_Data[LCD_Bitplane][5];
    39ec:	85 81       	ldd	r24, Z+5	; 0x05
    39ee:	80 93 f3 00 	sts	0x00F3, r24
    	LCDDR10 = LCD_Data[LCD_Bitplane][6];
    39f2:	86 81       	ldd	r24, Z+6	; 0x06
    39f4:	80 93 f6 00 	sts	0x00F6, r24
    	LCDDR11 = LCD_Data[LCD_Bitplane][7];
    39f8:	87 81       	ldd	r24, Z+7	; 0x07
    39fa:	80 93 f7 00 	sts	0x00F7, r24
    	LCDDR12 = LCD_Data[LCD_Bitplane][8];
    39fe:	80 85       	ldd	r24, Z+8	; 0x08
    3a00:	80 93 f8 00 	sts	0x00F8, r24
	}



	if (LCD_used_bitplanes == 1) {
    3a04:	80 91 17 01 	lds	r24, 0x0117
    3a08:	81 30       	cpi	r24, 0x01	; 1
    3a0a:	29 f4       	brne	.+10     	; 0x3a16 <task_lcd_update+0x92>
		// only one bitplane used, no blinking
    	// Updated; disable LCD start of frame interrupt
    	LCDCRA &= ~(1<<LCDIE);
    3a0c:	80 91 e4 00 	lds	r24, 0x00E4
    3a10:	87 7f       	andi	r24, 0xF7	; 247
    3a12:	80 93 e4 00 	sts	0x00E4, r24
    3a16:	08 95       	ret

00003a18 <__vector_22>:
    task |= TASK_LCD;
}
#else
// optimized
ISR_NAKED ISR (LCD_vect) {
    asm volatile(
    3a18:	f3 9a       	sbi	0x1e, 3	; 30
    3a1a:	18 95       	reti

00003a1c <__mulsi3>:
    3a1c:	62 9f       	mul	r22, r18
    3a1e:	d0 01       	movw	r26, r0
    3a20:	73 9f       	mul	r23, r19
    3a22:	f0 01       	movw	r30, r0
    3a24:	82 9f       	mul	r24, r18
    3a26:	e0 0d       	add	r30, r0
    3a28:	f1 1d       	adc	r31, r1
    3a2a:	64 9f       	mul	r22, r20
    3a2c:	e0 0d       	add	r30, r0
    3a2e:	f1 1d       	adc	r31, r1
    3a30:	92 9f       	mul	r25, r18
    3a32:	f0 0d       	add	r31, r0
    3a34:	83 9f       	mul	r24, r19
    3a36:	f0 0d       	add	r31, r0
    3a38:	74 9f       	mul	r23, r20
    3a3a:	f0 0d       	add	r31, r0
    3a3c:	65 9f       	mul	r22, r21
    3a3e:	f0 0d       	add	r31, r0
    3a40:	99 27       	eor	r25, r25
    3a42:	72 9f       	mul	r23, r18
    3a44:	b0 0d       	add	r27, r0
    3a46:	e1 1d       	adc	r30, r1
    3a48:	f9 1f       	adc	r31, r25
    3a4a:	63 9f       	mul	r22, r19
    3a4c:	b0 0d       	add	r27, r0
    3a4e:	e1 1d       	adc	r30, r1
    3a50:	f9 1f       	adc	r31, r25
    3a52:	bd 01       	movw	r22, r26
    3a54:	cf 01       	movw	r24, r30
    3a56:	11 24       	eor	r1, r1
    3a58:	08 95       	ret

00003a5a <__udivmodqi4>:
    3a5a:	99 1b       	sub	r25, r25
    3a5c:	79 e0       	ldi	r23, 0x09	; 9
    3a5e:	04 c0       	rjmp	.+8      	; 0x3a68 <__udivmodqi4_ep>

00003a60 <__udivmodqi4_loop>:
    3a60:	99 1f       	adc	r25, r25
    3a62:	96 17       	cp	r25, r22
    3a64:	08 f0       	brcs	.+2      	; 0x3a68 <__udivmodqi4_ep>
    3a66:	96 1b       	sub	r25, r22

00003a68 <__udivmodqi4_ep>:
    3a68:	88 1f       	adc	r24, r24
    3a6a:	7a 95       	dec	r23
    3a6c:	c9 f7       	brne	.-14     	; 0x3a60 <__udivmodqi4_loop>
    3a6e:	80 95       	com	r24
    3a70:	08 95       	ret

00003a72 <__divmodqi4>:
    3a72:	87 fb       	bst	r24, 7
    3a74:	08 2e       	mov	r0, r24
    3a76:	06 26       	eor	r0, r22
    3a78:	87 fd       	sbrc	r24, 7
    3a7a:	81 95       	neg	r24
    3a7c:	67 fd       	sbrc	r22, 7
    3a7e:	61 95       	neg	r22
    3a80:	ec df       	rcall	.-40     	; 0x3a5a <__udivmodqi4>
    3a82:	0e f4       	brtc	.+2      	; 0x3a86 <__divmodqi4_1>
    3a84:	91 95       	neg	r25

00003a86 <__divmodqi4_1>:
    3a86:	07 fc       	sbrc	r0, 7
    3a88:	81 95       	neg	r24

00003a8a <__divmodqi4_exit>:
    3a8a:	08 95       	ret

00003a8c <__udivmodhi4>:
    3a8c:	aa 1b       	sub	r26, r26
    3a8e:	bb 1b       	sub	r27, r27
    3a90:	51 e1       	ldi	r21, 0x11	; 17
    3a92:	07 c0       	rjmp	.+14     	; 0x3aa2 <__udivmodhi4_ep>

00003a94 <__udivmodhi4_loop>:
    3a94:	aa 1f       	adc	r26, r26
    3a96:	bb 1f       	adc	r27, r27
    3a98:	a6 17       	cp	r26, r22
    3a9a:	b7 07       	cpc	r27, r23
    3a9c:	10 f0       	brcs	.+4      	; 0x3aa2 <__udivmodhi4_ep>
    3a9e:	a6 1b       	sub	r26, r22
    3aa0:	b7 0b       	sbc	r27, r23

00003aa2 <__udivmodhi4_ep>:
    3aa2:	88 1f       	adc	r24, r24
    3aa4:	99 1f       	adc	r25, r25
    3aa6:	5a 95       	dec	r21
    3aa8:	a9 f7       	brne	.-22     	; 0x3a94 <__udivmodhi4_loop>
    3aaa:	80 95       	com	r24
    3aac:	90 95       	com	r25
    3aae:	bc 01       	movw	r22, r24
    3ab0:	cd 01       	movw	r24, r26
    3ab2:	08 95       	ret

00003ab4 <__divmodhi4>:
    3ab4:	97 fb       	bst	r25, 7
    3ab6:	09 2e       	mov	r0, r25
    3ab8:	07 26       	eor	r0, r23
    3aba:	0a d0       	rcall	.+20     	; 0x3ad0 <__divmodhi4_neg1>
    3abc:	77 fd       	sbrc	r23, 7
    3abe:	04 d0       	rcall	.+8      	; 0x3ac8 <__divmodhi4_neg2>
    3ac0:	e5 df       	rcall	.-54     	; 0x3a8c <__udivmodhi4>
    3ac2:	06 d0       	rcall	.+12     	; 0x3ad0 <__divmodhi4_neg1>
    3ac4:	00 20       	and	r0, r0
    3ac6:	1a f4       	brpl	.+6      	; 0x3ace <__divmodhi4_exit>

00003ac8 <__divmodhi4_neg2>:
    3ac8:	70 95       	com	r23
    3aca:	61 95       	neg	r22
    3acc:	7f 4f       	sbci	r23, 0xFF	; 255

00003ace <__divmodhi4_exit>:
    3ace:	08 95       	ret

00003ad0 <__divmodhi4_neg1>:
    3ad0:	f6 f7       	brtc	.-4      	; 0x3ace <__divmodhi4_exit>
    3ad2:	90 95       	com	r25
    3ad4:	81 95       	neg	r24
    3ad6:	9f 4f       	sbci	r25, 0xFF	; 255
    3ad8:	08 95       	ret

00003ada <__udivmodsi4>:
    3ada:	a1 e2       	ldi	r26, 0x21	; 33
    3adc:	1a 2e       	mov	r1, r26
    3ade:	aa 1b       	sub	r26, r26
    3ae0:	bb 1b       	sub	r27, r27
    3ae2:	fd 01       	movw	r30, r26
    3ae4:	0d c0       	rjmp	.+26     	; 0x3b00 <__udivmodsi4_ep>

00003ae6 <__udivmodsi4_loop>:
    3ae6:	aa 1f       	adc	r26, r26
    3ae8:	bb 1f       	adc	r27, r27
    3aea:	ee 1f       	adc	r30, r30
    3aec:	ff 1f       	adc	r31, r31
    3aee:	a2 17       	cp	r26, r18
    3af0:	b3 07       	cpc	r27, r19
    3af2:	e4 07       	cpc	r30, r20
    3af4:	f5 07       	cpc	r31, r21
    3af6:	20 f0       	brcs	.+8      	; 0x3b00 <__udivmodsi4_ep>
    3af8:	a2 1b       	sub	r26, r18
    3afa:	b3 0b       	sbc	r27, r19
    3afc:	e4 0b       	sbc	r30, r20
    3afe:	f5 0b       	sbc	r31, r21

00003b00 <__udivmodsi4_ep>:
    3b00:	66 1f       	adc	r22, r22
    3b02:	77 1f       	adc	r23, r23
    3b04:	88 1f       	adc	r24, r24
    3b06:	99 1f       	adc	r25, r25
    3b08:	1a 94       	dec	r1
    3b0a:	69 f7       	brne	.-38     	; 0x3ae6 <__udivmodsi4_loop>
    3b0c:	60 95       	com	r22
    3b0e:	70 95       	com	r23
    3b10:	80 95       	com	r24
    3b12:	90 95       	com	r25
    3b14:	9b 01       	movw	r18, r22
    3b16:	ac 01       	movw	r20, r24
    3b18:	bd 01       	movw	r22, r26
    3b1a:	cf 01       	movw	r24, r30
    3b1c:	08 95       	ret

00003b1e <__divmodsi4>:
    3b1e:	97 fb       	bst	r25, 7
    3b20:	09 2e       	mov	r0, r25
    3b22:	05 26       	eor	r0, r21
    3b24:	0e d0       	rcall	.+28     	; 0x3b42 <__divmodsi4_neg1>
    3b26:	57 fd       	sbrc	r21, 7
    3b28:	04 d0       	rcall	.+8      	; 0x3b32 <__divmodsi4_neg2>
    3b2a:	d7 df       	rcall	.-82     	; 0x3ada <__udivmodsi4>
    3b2c:	0a d0       	rcall	.+20     	; 0x3b42 <__divmodsi4_neg1>
    3b2e:	00 1c       	adc	r0, r0
    3b30:	38 f4       	brcc	.+14     	; 0x3b40 <__divmodsi4_exit>

00003b32 <__divmodsi4_neg2>:
    3b32:	50 95       	com	r21
    3b34:	40 95       	com	r20
    3b36:	30 95       	com	r19
    3b38:	21 95       	neg	r18
    3b3a:	3f 4f       	sbci	r19, 0xFF	; 255
    3b3c:	4f 4f       	sbci	r20, 0xFF	; 255
    3b3e:	5f 4f       	sbci	r21, 0xFF	; 255

00003b40 <__divmodsi4_exit>:
    3b40:	08 95       	ret

00003b42 <__divmodsi4_neg1>:
    3b42:	f6 f7       	brtc	.-4      	; 0x3b40 <__divmodsi4_exit>
    3b44:	90 95       	com	r25
    3b46:	80 95       	com	r24
    3b48:	70 95       	com	r23
    3b4a:	61 95       	neg	r22
    3b4c:	7f 4f       	sbci	r23, 0xFF	; 255
    3b4e:	8f 4f       	sbci	r24, 0xFF	; 255
    3b50:	9f 4f       	sbci	r25, 0xFF	; 255
    3b52:	08 95       	ret

00003b54 <__prologue_saves__>:
    3b54:	2f 92       	push	r2
    3b56:	3f 92       	push	r3
    3b58:	4f 92       	push	r4
    3b5a:	5f 92       	push	r5
    3b5c:	6f 92       	push	r6
    3b5e:	7f 92       	push	r7
    3b60:	8f 92       	push	r8
    3b62:	9f 92       	push	r9
    3b64:	af 92       	push	r10
    3b66:	bf 92       	push	r11
    3b68:	cf 92       	push	r12
    3b6a:	df 92       	push	r13
    3b6c:	ef 92       	push	r14
    3b6e:	ff 92       	push	r15
    3b70:	0f 93       	push	r16
    3b72:	1f 93       	push	r17
    3b74:	cf 93       	push	r28
    3b76:	df 93       	push	r29
    3b78:	cd b7       	in	r28, 0x3d	; 61
    3b7a:	de b7       	in	r29, 0x3e	; 62
    3b7c:	ca 1b       	sub	r28, r26
    3b7e:	db 0b       	sbc	r29, r27
    3b80:	0f b6       	in	r0, 0x3f	; 63
    3b82:	f8 94       	cli
    3b84:	de bf       	out	0x3e, r29	; 62
    3b86:	0f be       	out	0x3f, r0	; 63
    3b88:	cd bf       	out	0x3d, r28	; 61
    3b8a:	09 94       	ijmp

00003b8c <__epilogue_restores__>:
    3b8c:	2a 88       	ldd	r2, Y+18	; 0x12
    3b8e:	39 88       	ldd	r3, Y+17	; 0x11
    3b90:	48 88       	ldd	r4, Y+16	; 0x10
    3b92:	5f 84       	ldd	r5, Y+15	; 0x0f
    3b94:	6e 84       	ldd	r6, Y+14	; 0x0e
    3b96:	7d 84       	ldd	r7, Y+13	; 0x0d
    3b98:	8c 84       	ldd	r8, Y+12	; 0x0c
    3b9a:	9b 84       	ldd	r9, Y+11	; 0x0b
    3b9c:	aa 84       	ldd	r10, Y+10	; 0x0a
    3b9e:	b9 84       	ldd	r11, Y+9	; 0x09
    3ba0:	c8 84       	ldd	r12, Y+8	; 0x08
    3ba2:	df 80       	ldd	r13, Y+7	; 0x07
    3ba4:	ee 80       	ldd	r14, Y+6	; 0x06
    3ba6:	fd 80       	ldd	r15, Y+5	; 0x05
    3ba8:	0c 81       	ldd	r16, Y+4	; 0x04
    3baa:	1b 81       	ldd	r17, Y+3	; 0x03
    3bac:	aa 81       	ldd	r26, Y+2	; 0x02
    3bae:	b9 81       	ldd	r27, Y+1	; 0x01
    3bb0:	ce 0f       	add	r28, r30
    3bb2:	d1 1d       	adc	r29, r1
    3bb4:	0f b6       	in	r0, 0x3f	; 63
    3bb6:	f8 94       	cli
    3bb8:	de bf       	out	0x3e, r29	; 62
    3bba:	0f be       	out	0x3f, r0	; 63
    3bbc:	cd bf       	out	0x3d, r28	; 61
    3bbe:	ed 01       	movw	r28, r26
    3bc0:	08 95       	ret

00003bc2 <__tablejump2__>:
    3bc2:	ee 0f       	add	r30, r30
    3bc4:	ff 1f       	adc	r31, r31

00003bc6 <__tablejump__>:
    3bc6:	05 90       	lpm	r0, Z+
    3bc8:	f4 91       	lpm	r31, Z+
    3bca:	e0 2d       	mov	r30, r0
    3bcc:	09 94       	ijmp

00003bce <memcpy_P>:
    3bce:	fb 01       	movw	r30, r22
    3bd0:	dc 01       	movw	r26, r24
    3bd2:	02 c0       	rjmp	.+4      	; 0x3bd8 <memcpy_P+0xa>
    3bd4:	05 90       	lpm	r0, Z+
    3bd6:	0d 92       	st	X+, r0
    3bd8:	41 50       	subi	r20, 0x01	; 1
    3bda:	50 40       	sbci	r21, 0x00	; 0
    3bdc:	d8 f7       	brcc	.-10     	; 0x3bd4 <memcpy_P+0x6>
    3bde:	08 95       	ret

00003be0 <memcpy>:
    3be0:	fb 01       	movw	r30, r22
    3be2:	dc 01       	movw	r26, r24
    3be4:	02 c0       	rjmp	.+4      	; 0x3bea <memcpy+0xa>
    3be6:	01 90       	ld	r0, Z+
    3be8:	0d 92       	st	X+, r0
    3bea:	41 50       	subi	r20, 0x01	; 1
    3bec:	50 40       	sbci	r21, 0x00	; 0
    3bee:	d8 f7       	brcc	.-10     	; 0x3be6 <memcpy+0x6>
    3bf0:	08 95       	ret

00003bf2 <_exit>:
    3bf2:	f8 94       	cli

00003bf4 <__stop_program>:
    3bf4:	ff cf       	rjmp	.-2      	; 0x3bf4 <__stop_program>
